Certificate:
    Data:
        Version: 3 (0x2)
        Serial Number: 99 (0x63)
    Signature Algorithm: sha256WithRSAEncryption
        Issuer: C=CA, ST=ON, L=TO, O=PIV Org, OU=PIV Org, CN=piv.org
        Validity
            Not Before: Apr 15 22:07:56 2020 GMT
            Not After : Jan 10 22:07:56 2023 GMT
        Subject: C=CA, ST=ON, L=TO, O=PIV Org, CN=PIV Org
        Subject Public Key Info:
            Public Key Algorithm: rsaEncryption
                Public-Key: (4096 bit)
                Modulus:
                    00:c5:b7:25:82:a6:47:4d:56:d1:de:f6:9a:82:0e:
                    9e:39:85:4b:f5:0e:b8:06:08:b2:2a:ca:5c:d0:bf:
                    38:8e:cd:42:01:f1:2e:0b:c9:f9:d3:6c:3d:5f:30:
                    94:13:d7:8a:7e:8f:0c:cc:35:5f:bd:3f:f0:d4:e4:
                    4c:a9:42:4e:1c:2d:7d:76:2c:80:2f:51:7d:26:46:
                    c3:83:33:45:e6:7a:73:91:48:c2:37:48:66:36:bd:
                    35:0c:ea:87:9d:9c:a5:95:ce:50:5a:74:f2:f9:4f:
                    3e:db:fa:73:41:c0:52:63:ac:60:67:8c:b0:e0:d3:
                    a3:e0:52:a1:5b:31:b9:48:24:36:26:bf:67:9f:4b:
                    5a:d7:46:0a:96:27:c1:1d:1d:02:ff:5e:eb:74:c2:
                    55:2a:4e:32:65:31:ee:7e:cd:6a:cd:a3:c4:a7:28:
                    1b:57:23:87:a9:3e:e5:e8:ae:e3:2d:37:9f:ce:c8:
                    1c:a4:0c:2c:90:1b:03:d2:71:91:1a:e3:ff:38:a5:
                    13:01:c1:4d:b5:98:8a:41:e3:65:17:e7:4d:0d:3e:
                    e6:ce:90:64:68:4a:00:15:5c:19:59:f3:16:ba:0b:
                    c4:19:0e:88:c7:9f:4e:7e:8c:70:7c:f6:88:fd:f7:
                    69:de:97:51:dd:ee:48:3f:c0:51:3e:58:36:ec:e9:
                    c6:99:68:91:d3:a8:b8:e9:32:a0:33:5f:42:f7:dd:
                    1b:34:c3:2e:95:70:a8:bb:66:47:d2:d8:9c:28:d7:
                    57:89:6e:17:8c:35:d1:24:ab:d6:a6:08:b3:41:9c:
                    12:3d:cf:79:8d:6e:c6:99:44:e9:45:56:78:b5:5d:
                    45:92:a6:3e:f8:1b:97:38:7f:50:5e:67:51:d7:bc:
                    6f:7c:86:15:47:32:3d:0e:1e:9c:b4:43:6c:a3:53:
                    f4:4a:52:8b:f6:b6:0b:98:14:f4:2d:66:f7:3e:8e:
                    dc:25:e8:b9:83:60:c3:d0:71:b3:b3:39:a0:5f:de:
                    84:47:84:8c:aa:68:1d:6a:87:58:c2:cc:50:5e:e7:
                    dc:0c:5d:15:06:1d:3d:b3:a3:f1:8d:33:d0:60:8c:
                    fe:8b:95:f6:61:34:ce:a7:3d:43:ec:10:2e:a6:11:
                    7c:1e:b6:c8:fa:e6:df:fe:18:b1:b5:8a:e5:87:1c:
                    45:20:8d:5a:a2:a0:07:1d:75:47:c7:cc:91:e0:31:
                    8a:ee:de:04:2a:79:8b:e8:91:6f:fd:8d:dc:09:28:
                    50:25:8d:1f:5d:f5:f8:55:e5:39:25:80:c9:f2:75:
                    e1:d3:84:b1:e1:82:8f:b1:0f:4c:bd:c4:bd:e9:a1:
                    1b:80:ac:4f:d9:53:b1:28:cd:8e:1b:29:5a:62:7d:
                    fa:fb:c7
                Exponent: 65537 (0x10001)
        X509v3 extensions:
            X509v3 Subject Key Identifier: 
                36:09:45:33:23:03:65:97:95:04:69:66:3D:5D:CD:94:56:82:18:FC
            X509v3 Authority Key Identifier: 
                keyid:05:C8:8F:F6:8E:ED:35:07:0F:99:9F:E7:E1:DD:0E:89:5C:58:18:D0

            X509v3 Basic Constraints: 
                CA:FALSE
            X509v3 Key Usage: 
                Digital Signature, Key Encipherment
            X509v3 Subject Alternative Name: 
                othername:<unsupported>, email:piv-user-1@piv.org
            Netscape Comment: 
                OpenSSL Generated Certificate
    Signature Algorithm: sha256WithRSAEncryption
         4c:28:e3:98:23:81:f0:03:af:4b:08:18:70:f8:8c:0a:39:e2:
         62:4d:11:99:5d:37:60:10:94:34:66:b6:f1:94:8b:1f:55:91:
         15:8e:e4:22:ae:85:aa:8e:63:a8:ea:e1:dd:89:4a:a8:f8:7b:
         8e:97:cc:34:ae:f9:2e:35:8f:92:b6:24:da:62:d4:db:88:48:
         7c:be:54:23:95:62:57:12:72:b4:0d:66:3a:b3:ab:ba:fb:a9:
         05:5f:b6:93:bb:cc:8b:e5:8b:e9:4e:97:6a:ae:c5:b9:71:27:
         b1:1e:8f:5c:44:37:37:13:6c:85:69:8c:00:78:03:92:00:40:
         23:12:87:c0:46:e5:7f:49:c3:69:07:e7:72:80:8e:80:90:f6:
         39:56:6d:3a:0f:cf:ef:c2:cd:b5:a6:91:4b:a0:2c:dd:e4:c0:
         ae:ee:81:dc:63:4c:30:fd:a1:6d:23:50:93:97:a0:d9:63:05:
         ce:77:c3:5d:3e:7e:8b:67:b7:1b:cf:38:b3:67:d1:1c:af:9a:
         58:b7:3e:82:5e:d8:1d:1f:45:e4:14:40:fd:f3:2d:4e:b3:c9:
         3a:13:5d:f2:a5:bf:79:49:c3:40:46:3a:f9:27:bb:24:60:1d:
         d1:b5:ed:41:fd:f4:32:0c:87:b8:22:54:72:ee:e0:93:6b:e1:
         55:e7:17:8d:8a:0d:49:73:a0:4e:9f:b1:14:f9:d7:6c:eb:ec:
         0e:8e:b0:d6:26:7f:61:40:67:b4:5f:1b:fb:23:1b:97:6b:d0:
         46:e9:7e:4e:04:a2:3e:73:c0:0b:47:2c:0c:51:e3:f0:76:23:
         62:24:e9:da:aa:bb:de:73:28:5e:a1:b0:01:35:0f:29:f9:83:
         49:70:87:d8:38:d2:42:27:fc:0e:c4:3f:95:67:41:5c:e5:ff:
         a2:6b:1e:cd:7b:9b:1a:f3:8e:12:56:2b:cc:20:71:e9:34:9c:
         cb:af:8b:a2:70:42:ce:83:01:8d:31:6e:6e:0f:f9:7f:88:fa:
         b1:d5:c0:85:ec:e0:29:e6:36:f5:9a:71:1c:9d:72:2b:63:84:
         55:27:0d:91:1e:6f:ad:dd:12:d9:25:35:bb:20:70:83:6e:55:
         4a:9c:35:79:5f:1b:68:d5:48:e0:8e:07:58:e6:44:72:60:72:
         41:35:71:e5:08:19:ef:df:62:bd:be:60:a1:42:0c:50:b6:66:
         26:b6:29:13:8e:c8:23:e0:5b:dd:d2:24:7d:82:5d:e4:19:51:
         cf:7e:a2:40:00:f1:4c:a5:11:a3:98:e2:fb:94:47:d3:eb:b6:
         88:fd:bb:b5:37:d3:03:75:d9:ed:b7:20:4e:c7:9a:b8:80:54:
         b3:69:31:96:62:42:82:66
-----BEGIN CERTIFICATE-----
MIIF8DCCA9igAwIBAgIBYzANBgkqhkiG9w0BAQsFADBdMQswCQYDVQQGEwJDQTEL
MAkGA1UECAwCT04xCzAJBgNVBAcMAlRPMRAwDgYDVQQKDAdQSVYgT3JnMRAwDgYD
VQQLDAdQSVYgT3JnMRAwDgYDVQQDDAdwaXYub3JnMB4XDTIwMDQxNTIyMDc1NloX
DTIzMDExMDIyMDc1NlowSzELMAkGA1UEBhMCQ0ExCzAJBgNVBAgMAk9OMQswCQYD
VQQHDAJUTzEQMA4GA1UECgwHUElWIE9yZzEQMA4GA1UEAwwHUElWIE9yZzCCAiIw
DQYJKoZIhvcNAQEBBQADggIPADCCAgoCggIBAMW3JYKmR01W0d72moIOnjmFS/UO
uAYIsirKXNC/OI7NQgHxLgvJ+dNsPV8wlBPXin6PDMw1X70/8NTkTKlCThwtfXYs
gC9RfSZGw4MzReZ6c5FIwjdIZja9NQzqh52cpZXOUFp08vlPPtv6c0HAUmOsYGeM
sODTo+BSoVsxuUgkNia/Z59LWtdGCpYnwR0dAv9e63TCVSpOMmUx7n7Nas2jxKco
G1cjh6k+5eiu4y03n87IHKQMLJAbA9JxkRrj/zilEwHBTbWYikHjZRfnTQ0+5s6Q
ZGhKABVcGVnzFroLxBkOiMefTn6McHz2iP33ad6XUd3uSD/AUT5YNuzpxplokdOo
uOkyoDNfQvfdGzTDLpVwqLtmR9LYnCjXV4luF4w10SSr1qYIs0GcEj3PeY1uxplE
6UVWeLVdRZKmPvgblzh/UF5nUde8b3yGFUcyPQ4enLRDbKNT9EpSi/a2C5gU9C1m
9z6O3CXouYNgw9Bxs7M5oF/ehEeEjKpoHWqHWMLMUF7n3AxdFQYdPbOj8Y0z0GCM
/ouV9mE0zqc9Q+wQLqYRfB62yPrm3/4YsbWK5YccRSCNWqKgBx11R8fMkeAxiu7e
BCp5i+iRb/2N3AkoUCWNH131+FXlOSWAyfJ14dOEseGCj7EPTL3EvemhG4CsT9lT
sSjNjhspWmJ9+vvHAgMBAAGjgcwwgckwHQYDVR0OBBYEFDYJRTMjA2WXlQRpZj1d
zZRWghj8MB8GA1UdIwQYMBaAFAXIj/aO7TUHD5mf5+HdDolcWBjQMAkGA1UdEwQC
MAAwCwYDVR0PBAQDAgWgMEEGA1UdEQQ6MDigIgYKKwYBBAGCNxQCA6AUDBJwaXYt
dXNlci0xQHBpdi5vcmeBEnBpdi11c2VyLTFAcGl2Lm9yZzAsBglghkgBhvhCAQ0E
HxYdT3BlblNTTCBHZW5lcmF0ZWQgQ2VydGlmaWNhdGUwDQYJKoZIhvcNAQELBQAD
ggIBAEwo45gjgfADr0sIGHD4jAo54mJNEZldN2AQlDRmtvGUix9VkRWO5CKuhaqO
Y6jq4d2JSqj4e46XzDSu+S41j5K2JNpi1NuISHy+VCOVYlcScrQNZjqzq7r7qQVf
tpO7zIvli+lOl2quxblxJ7Eej1xENzcTbIVpjAB4A5IAQCMSh8BG5X9Jw2kH53KA
joCQ9jlWbToPz+/CzbWmkUugLN3kwK7ugdxjTDD9oW0jUJOXoNljBc53w10+fotn
txvPOLNn0Ryvmli3PoJe2B0fReQUQP3zLU6zyToTXfKlv3lJw0BGOvknuyRgHdG1
7UH99DIMh7giVHLu4JNr4VXnF42KDUlzoE6fsRT512zr7A6OsNYmf2FAZ7RfG/sj
G5dr0Ebpfk4Eoj5zwAtHLAxR4/B2I2Ik6dqqu95zKF6hsAE1Dyn5g0lwh9g40kIn
/A7EP5VnQVzl/6JrHs17mxrzjhJWK8wgcek0nMuvi6JwQs6DAY0xbm4P+X+I+rHV
wIXs4CnmNvWacRydcitjhFUnDZEeb63dEtklNbsgcINuVUqcNXlfG2jVSOCOB1jm
RHJgckE1ceUIGe/fYr2+YKFCDFC2Zia2KROOyCPgW93SJH2CXeQZUc9+okAA8Uyl
EaOY4vuUR9Prtoj9u7U30wN12e23IE7HmriAVLNpMZZiQoJm
-----END CERTIFICATE-----
