Certificate:
    Data:
        Version: 3 (0x2)
        Serial Number: 1 (0x1)
    Signature Algorithm: sha256WithRSAEncryption
        Issuer: C=CA, ST=ON, L=TO, O=PIV Org, OU=PIV Org, CN=piv.org/emailAddress=ca@piv.org
        Validity
            Not Before: Apr 15 20:46:07 2020 GMT
            Not After : Jan 10 20:46:07 2023 GMT
        Subject: C=CA, ST=ON, L=TO, O=PIV Org, OU=PIV Org, CN=piv.org
        Subject Public Key Info:
            Public Key Algorithm: rsaEncryption
                Public-Key: (4096 bit)
                Modulus:
                    00:9c:30:f0:96:45:54:05:0e:10:26:8c:cc:38:bf:
                    17:ae:7e:9d:25:52:77:9d:38:d5:41:fe:8e:4c:a8:
                    3d:a4:2a:2a:7e:80:78:be:e3:78:71:a8:c5:ae:6c:
                    be:35:10:8b:d1:fb:24:c1:cf:7e:43:28:3a:07:8b:
                    d2:28:f1:b6:3f:70:2f:81:05:64:4e:e1:70:04:7d:
                    ac:99:c3:08:f5:eb:ae:9e:f3:49:8f:1c:bb:81:4d:
                    ad:1d:0b:08:be:3d:90:44:c8:24:06:3f:71:cb:33:
                    ec:50:43:19:a4:f0:04:16:b9:77:41:43:1b:d4:17:
                    29:cc:8a:53:77:bd:35:b5:54:b4:3e:fb:d3:ed:5c:
                    f4:cd:47:3b:9d:98:71:2a:00:2b:56:21:cb:fd:7e:
                    29:8a:1b:f6:bc:bc:18:e9:b4:a8:37:09:da:70:7a:
                    f6:f9:cc:02:5a:27:8e:fe:bb:e4:70:7c:a7:61:0f:
                    cf:69:38:91:69:ea:e4:56:bb:97:38:21:65:f3:79:
                    f7:a7:70:5c:3a:03:93:f2:ea:b8:25:ec:4c:f0:f3:
                    e3:11:34:77:f5:51:01:50:49:c6:b4:04:b5:7d:2c:
                    a2:b2:e9:16:d3:8c:47:64:16:2f:a3:21:93:a8:44:
                    84:81:84:1a:45:72:10:30:27:58:da:14:11:97:68:
                    86:0a:cd:c9:d3:5c:29:f0:ae:9d:58:ab:7c:1f:f4:
                    4a:49:0c:89:f2:41:db:f5:95:28:49:f3:b7:8c:7d:
                    fe:9d:91:22:b1:6f:64:24:bc:c3:e9:92:a2:82:3d:
                    e6:7a:f4:14:48:91:06:53:01:6b:aa:6f:5b:85:f7:
                    03:81:d6:68:35:20:99:96:11:44:f2:10:81:0f:45:
                    4a:b3:30:fc:49:1b:58:f7:69:b0:21:f5:66:40:e6:
                    e4:9a:6f:08:5f:6b:76:d0:34:90:8e:38:59:18:2b:
                    9c:01:d7:46:74:d9:7b:c3:1d:c3:b4:85:69:23:81:
                    ad:87:2b:b5:5a:89:22:11:07:6b:c0:f3:25:7f:ef:
                    7b:9c:18:99:db:49:c4:38:07:d6:0c:1c:a4:70:e0:
                    fa:b9:6e:78:d4:98:5a:61:43:f7:49:13:70:15:12:
                    c1:a7:78:b1:20:1e:10:d5:e1:3c:9b:38:9b:b4:63:
                    da:c4:92:09:90:83:06:39:84:45:bc:a3:bd:ed:41:
                    47:90:22:a7:61:ba:91:1e:bc:41:b5:59:97:38:5e:
                    20:8a:eb:ea:4b:49:e7:e8:59:29:22:c1:f1:db:08:
                    a7:6e:a6:27:fe:a9:a5:3b:a8:24:d7:fc:f7:10:78:
                    e6:bb:dc:38:af:72:ed:72:5e:49:a2:f6:b2:0c:f5:
                    23:dd:83
                Exponent: 65537 (0x10001)
        X509v3 extensions:
            X509v3 Subject Key Identifier: 
                05:C8:8F:F6:8E:ED:35:07:0F:99:9F:E7:E1:DD:0E:89:5C:58:18:D0
            X509v3 Authority Key Identifier: 
                keyid:57:A7:EE:30:2E:5E:AB:77:B7:15:95:F4:54:E7:A4:0C:7F:99:CD:B0

            X509v3 Basic Constraints: 
                CA:FALSE
            X509v3 Key Usage: 
                Digital Signature, Key Encipherment
    Signature Algorithm: sha256WithRSAEncryption
         48:3d:95:0e:34:00:f2:02:37:d1:86:3e:27:94:a8:a7:af:4a:
         c5:1d:17:84:75:62:da:ac:7e:1f:ea:e7:72:a2:3c:77:d5:4a:
         12:7e:3b:24:34:69:7e:3f:ae:d8:a0:d4:98:66:b3:e6:1b:a5:
         49:85:73:77:e0:6c:96:2f:ed:6c:a3:0a:9b:e3:34:c8:58:8c:
         71:05:8b:91:57:65:81:27:46:df:5a:e6:7e:e9:8f:4e:e5:44:
         1f:40:40:57:c3:12:15:f2:f0:37:95:d5:b4:21:88:a7:48:f8:
         ac:7b:ee:a9:46:21:5f:c5:17:dd:f4:24:c7:db:4a:df:b8:e1:
         6e:f8:6d:b0:6e:eb:08:23:b8:13:00:ea:54:d7:b4:af:72:83:
         f9:f8:02:66:52:a0:1f:e6:db:1f:6c:dd:c9:b0:25:d2:92:8d:
         dc:5a:ee:e6:1d:5f:f6:1c:75:62:c0:4d:5f:0b:d3:9f:8f:3c:
         23:5d:f2:d7:d1:08:56:0a:6c:23:86:ae:d2:34:32:c9:b8:9e:
         d0:45:9c:0c:99:95:10:84:67:4d:1f:b7:87:fa:42:43:dc:7d:
         5a:35:c5:9a:41:40:76:6e:15:d0:84:39:eb:1f:a4:7c:97:d5:
         ab:bd:a7:8e:dd:16:ca:2b:1f:23:29:bd:14:0e:28:9a:17:86:
         af:4f:7b:a8:da:22:fc:45:01:e1:39:75:ac:42:f0:8d:f1:3d:
         50:b2:e8:7b:88:ec:9a:e4:14:4a:a7:d7:e1:89:cf:5a:11:56:
         88:67:a7:10:98:02:82:de:fc:50:9f:06:d2:96:98:d9:d0:3f:
         9f:3d:2f:42:46:0c:cf:f0:17:05:1e:a9:5b:92:5b:57:2b:4d:
         eb:a4:a0:b9:46:c9:17:51:a7:d4:8f:33:6c:b1:e1:bf:a6:13:
         84:32:34:b4:99:d9:ef:bf:e0:3b:48:35:8c:d8:bc:9f:13:0e:
         1f:5e:75:e7:65:8d:2b:39:03:a3:ed:9c:13:d6:bc:de:a6:30:
         59:4e:8c:aa:8a:f2:af:29:fc:03:c0:b1:8f:16:55:f9:b5:34:
         be:c8:90:ed:cc:21:43:a0:fb:ef:40:ab:ad:fc:75:a3:61:3b:
         50:d2:ab:86:08:a3:b7:72:67:7b:cc:83:97:8a:81:dc:47:6c:
         89:12:4a:f8:f6:5d:2e:f9:70:eb:ab:dd:8e:ca:de:16:ac:3e:
         48:28:d9:14:14:a0:17:b0:a5:74:c8:43:35:d9:2a:59:69:d1:
         ce:03:80:c3:68:70:fb:e2:17:42:fc:92:b4:93:5a:78:db:f6:
         14:cf:08:ae:0e:50:46:1f:cb:1f:69:da:18:ce:46:7f:9a:d7:
         a3:55:66:4a:57:fa:ca:8b
-----BEGIN CERTIFICATE-----
MIIFqjCCA5KgAwIBAgIBATANBgkqhkiG9w0BAQsFADB4MQswCQYDVQQGEwJDQTEL
MAkGA1UECAwCT04xCzAJBgNVBAcMAlRPMRAwDgYDVQQKDAdQSVYgT3JnMRAwDgYD
VQQLDAdQSVYgT3JnMRAwDgYDVQQDDAdwaXYub3JnMRkwFwYJKoZIhvcNAQkBFgpj
YUBwaXYub3JnMB4XDTIwMDQxNTIwNDYwN1oXDTIzMDExMDIwNDYwN1owXTELMAkG
A1UEBhMCQ0ExCzAJBgNVBAgMAk9OMQswCQYDVQQHDAJUTzEQMA4GA1UECgwHUElW
IE9yZzEQMA4GA1UECwwHUElWIE9yZzEQMA4GA1UEAwwHcGl2Lm9yZzCCAiIwDQYJ
KoZIhvcNAQEBBQADggIPADCCAgoCggIBAJww8JZFVAUOECaMzDi/F65+nSVSd504
1UH+jkyoPaQqKn6AeL7jeHGoxa5svjUQi9H7JMHPfkMoOgeL0ijxtj9wL4EFZE7h
cAR9rJnDCPXrrp7zSY8cu4FNrR0LCL49kETIJAY/ccsz7FBDGaTwBBa5d0FDG9QX
KcyKU3e9NbVUtD770+1c9M1HO52YcSoAK1Yhy/1+KYob9ry8GOm0qDcJ2nB69vnM
Alonjv675HB8p2EPz2k4kWnq5Fa7lzghZfN596dwXDoDk/LquCXsTPDz4xE0d/VR
AVBJxrQEtX0sorLpFtOMR2QWL6Mhk6hEhIGEGkVyEDAnWNoUEZdohgrNydNcKfCu
nVirfB/0SkkMifJB2/WVKEnzt4x9/p2RIrFvZCS8w+mSooI95nr0FEiRBlMBa6pv
W4X3A4HWaDUgmZYRRPIQgQ9FSrMw/EkbWPdpsCH1ZkDm5JpvCF9rdtA0kI44WRgr
nAHXRnTZe8Mdw7SFaSOBrYcrtVqJIhEHa8DzJX/ve5wYmdtJxDgH1gwcpHDg+rlu
eNSYWmFD90kTcBUSwad4sSAeENXhPJs4m7Rj2sSSCZCDBjmERbyjve1BR5Aip2G6
kR68QbVZlzheIIrr6ktJ5+hZKSLB8dsIp26mJ/6ppTuoJNf89xB45rvcOK9y7XJe
SaL2sgz1I92DAgMBAAGjWjBYMB0GA1UdDgQWBBQFyI/2ju01Bw+Zn+fh3Q6JXFgY
0DAfBgNVHSMEGDAWgBRXp+4wLl6rd7cVlfRU56QMf5nNsDAJBgNVHRMEAjAAMAsG
A1UdDwQEAwIFoDANBgkqhkiG9w0BAQsFAAOCAgEASD2VDjQA8gI30YY+J5Sop69K
xR0XhHVi2qx+H+rncqI8d9VKEn47JDRpfj+u2KDUmGaz5hulSYVzd+Bsli/tbKMK
m+M0yFiMcQWLkVdlgSdG31rmfumPTuVEH0BAV8MSFfLwN5XVtCGIp0j4rHvuqUYh
X8UX3fQkx9tK37jhbvhtsG7rCCO4EwDqVNe0r3KD+fgCZlKgH+bbH2zdybAl0pKN
3Fru5h1f9hx1YsBNXwvTn488I13y19EIVgpsI4au0jQyybie0EWcDJmVEIRnTR+3
h/pCQ9x9WjXFmkFAdm4V0IQ56x+kfJfVq72njt0WyisfIym9FA4omheGr097qNoi
/EUB4Tl1rELwjfE9ULLoe4jsmuQUSqfX4YnPWhFWiGenEJgCgt78UJ8G0paY2dA/
nz0vQkYMz/AXBR6pW5JbVytN66SguUbJF1Gn1I8zbLHhv6YThDI0tJnZ77/gO0g1
jNi8nxMOH15152WNKzkDo+2cE9a83qYwWU6Mqoryryn8A8CxjxZV+bU0vsiQ7cwh
Q6D770Crrfx1o2E7UNKrhgijt3Jne8yDl4qB3EdsiRJK+PZdLvlw66vdjsreFqw+
SCjZFBSgF7CldMhDNdkqWWnRzgOAw2hw++IXQvyStJNaeNv2FM8Irg5QRh/LH2na
GM5Gf5rXo1VmSlf6yos=
-----END CERTIFICATE-----
