Certificate:
    Data:
        Version: 3 (0x2)
        Serial Number: 2 (0x2)
    Signature Algorithm: sha256WithRSAEncryption
        Issuer: C=CA, ST=ON, L=TO, O=PIV Org, OU=PIV Org, CN=piv.org/emailAddress=ca@piv.org
        Validity
            Not Before: Aug 18 19:49:54 2020 GMT
            Not After : May 15 19:49:54 2023 GMT
        Subject: C=CA, ST=ON, L=TO, O=PIV Org, OU=PIV Org, CN=piv.org
        Subject Public Key Info:
            Public Key Algorithm: rsaEncryption
                Public-Key: (2048 bit)
                Modulus:
                    00:eb:44:77:4f:5d:ac:33:7d:68:ce:44:74:a6:2e:
                    0e:0d:5e:7f:f2:cd:35:0a:43:31:dd:f0:75:6f:b9:
                    17:91:cf:4a:3a:84:23:29:6c:f4:87:05:7f:2b:37:
                    bf:b5:25:03:e2:dc:32:f5:f6:46:57:94:d8:cc:00:
                    12:ff:cd:d2:94:9a:22:b6:86:ff:0d:43:1c:bd:4d:
                    2f:e6:ef:7f:ad:80:a3:22:20:04:eb:a6:6b:5e:4a:
                    13:d7:30:c4:62:dc:8a:17:3c:88:a0:b6:46:4e:31:
                    83:f8:6c:97:ff:e9:68:80:37:c1:aa:2f:4f:5d:d9:
                    78:00:b4:8c:45:aa:2b:04:d4:cf:90:bd:38:99:10:
                    32:99:c4:c7:55:67:a2:ee:48:d4:74:52:e9:20:ed:
                    1e:8b:58:6a:2c:e0:2e:35:64:86:e7:dd:97:f3:04:
                    e5:d0:72:72:c0:72:78:3c:3e:a8:03:bc:7a:bb:19:
                    2f:bb:c5:70:c8:3a:17:17:a3:56:bf:1a:dc:12:ca:
                    55:30:df:5c:5e:ab:f0:51:2a:85:4e:33:ea:d7:b1:
                    c7:05:64:9f:e2:42:dd:70:34:94:c2:8e:08:8f:fa:
                    31:03:89:f8:00:ee:22:31:4e:79:e0:e2:0c:d8:ee:
                    b4:ed:db:ba:d4:66:9c:39:46:25:bc:86:a0:95:ca:
                    11:b3
                Exponent: 65537 (0x10001)
        X509v3 extensions:
            X509v3 Subject Key Identifier: 
                4C:C3:25:AC:F0:68:4C:61:43:73:3D:DD:70:AB:25:8A:89:A2:91:84
            X509v3 Authority Key Identifier: 
                keyid:0A:3D:C1:C1:CC:5A:AF:18:4C:63:F1:25:F3:04:B9:AE:62:E1:ED:3E

            X509v3 Basic Constraints: 
                CA:FALSE
            X509v3 Key Usage: 
                Digital Signature, Key Encipherment
    Signature Algorithm: sha256WithRSAEncryption
         51:04:d6:56:e5:fd:ef:23:8b:70:e7:6b:8a:88:f8:4d:e1:ff:
         af:46:15:45:85:c8:86:ab:27:6f:ec:9e:d4:58:4b:e7:d6:cc:
         a8:23:8a:82:c1:2c:c7:9d:83:bd:d0:ee:e6:1c:9f:24:e0:f6:
         b8:d7:26:4d:40:b7:89:50:fb:30:57:22:6b:22:44:af:ae:46:
         a2:3a:4a:46:5f:64:2f:23:7c:45:54:ea:de:2b:a4:44:2d:a2:
         1c:dd:f2:cc:86:d2:9f:67:f5:1b:ce:87:ad:f0:18:48:df:81:
         ed:5e:bd:de:38:a0:17:b7:88:0f:c7:23:10:e5:72:f8:77:ec:
         6d:90:df:90:3f:3f:d4:e7:da:c9:06:96:35:3b:32:20:20:3e:
         5d:4d:98:9b:ff:92:00:db:3c:be:18:3b:71:81:f0:0e:ae:93:
         64:10:d4:c9:a9:ab:4d:75:bb:88:e6:f2:9e:8d:f2:de:23:4e:
         bf:dc:f0:26:a4:33:79:16:5f:55:97:b5:9d:f2:58:92:0d:7f:
         78:13:31:1f:ce:fe:97:79:a8:59:a6:72:be:70:ae:b6:84:11:
         91:f0:b8:f4:7b:3e:bc:08:43:f5:f9:7a:74:74:53:63:a7:66:
         3b:6e:ab:f4:38:4d:af:1a:0b:64:6b:10:29:ed:22:ee:72:c0:
         ac:59:dc:7c:6a:80:c2:b7:42:bb:84:6c:e8:5d:31:8a:88:99:
         7f:8a:f6:55:0e:fa:b1:69:b9:61:ee:44:21:bf:2f:f5:85:6c:
         52:c1:96:9b:79:62:d0:09:4d:3b:07:bb:20:5b:4a:32:e4:89:
         54:be:ed:ec:73:45:45:96:9f:4a:35:b6:47:68:cb:e1:e1:c9:
         97:1b:d3:6c:a8:10:39:78:b3:71:79:23:36:90:ed:2c:7d:3d:
         21:49:2d:c5:26:5c:b3:c0:66:1a:31:a7:74:06:be:26:0a:8e:
         93:04:e5:e1:d5:e9:33:2e:e4:c4:ba:15:97:fd:5f:4e:da:4e:
         45:d9:35:23:99:c5:b5:e9:c6:b1:b7:f7:98:3e:d2:79:1e:b2:
         d4:92:df:12:19:60:97:db:81:d7:4a:b5:24:19:d2:c7:8d:69:
         f1:1f:98:db:93:1b:73:c4:16:0b:13:f2:98:5b:af:b3:19:f8:
         9d:b3:99:fe:e8:04:c5:e4:ab:8b:62:ba:ec:d7:66:1f:c2:9e:
         c8:92:9f:c3:4f:89:7f:31:6b:00:e6:02:70:ae:1d:cf:5b:5e:
         5a:b1:e6:d0:cf:4d:ef:ae:6e:9d:66:64:ae:95:4c:ad:a9:99:
         e7:8a:3e:7b:68:3f:67:84:eb:7c:b4:00:40:62:6f:e2:31:ac:
         54:e3:6f:ea:89:0c:ff:e7
-----BEGIN CERTIFICATE-----
MIIEqjCCApKgAwIBAgIBAjANBgkqhkiG9w0BAQsFADB4MQswCQYDVQQGEwJDQTEL
MAkGA1UECAwCT04xCzAJBgNVBAcMAlRPMRAwDgYDVQQKDAdQSVYgT3JnMRAwDgYD
VQQLDAdQSVYgT3JnMRAwDgYDVQQDDAdwaXYub3JnMRkwFwYJKoZIhvcNAQkBFgpj
YUBwaXYub3JnMB4XDTIwMDgxODE5NDk1NFoXDTIzMDUxNTE5NDk1NFowXTELMAkG
A1UEBhMCQ0ExCzAJBgNVBAgMAk9OMQswCQYDVQQHDAJUTzEQMA4GA1UECgwHUElW
IE9yZzEQMA4GA1UECwwHUElWIE9yZzEQMA4GA1UEAwwHcGl2Lm9yZzCCASIwDQYJ
KoZIhvcNAQEBBQADggEPADCCAQoCggEBAOtEd09drDN9aM5EdKYuDg1ef/LNNQpD
Md3wdW+5F5HPSjqEIyls9IcFfys3v7UlA+LcMvX2RleU2MwAEv/N0pSaIraG/w1D
HL1NL+bvf62AoyIgBOuma15KE9cwxGLcihc8iKC2Rk4xg/hsl//paIA3waovT13Z
eAC0jEWqKwTUz5C9OJkQMpnEx1Vnou5I1HRS6SDtHotYaizgLjVkhufdl/ME5dBy
csByeDw+qAO8ersZL7vFcMg6FxejVr8a3BLKVTDfXF6r8FEqhU4z6texxwVkn+JC
3XA0lMKOCI/6MQOJ+ADuIjFOeeDiDNjutO3butRmnDlGJbyGoJXKEbMCAwEAAaNa
MFgwHQYDVR0OBBYEFEzDJazwaExhQ3M93XCrJYqJopGEMB8GA1UdIwQYMBaAFAo9
wcHMWq8YTGPxJfMEua5i4e0+MAkGA1UdEwQCMAAwCwYDVR0PBAQDAgWgMA0GCSqG
SIb3DQEBCwUAA4ICAQBRBNZW5f3vI4tw52uKiPhN4f+vRhVFhciGqydv7J7UWEvn
1syoI4qCwSzHnYO90O7mHJ8k4Pa41yZNQLeJUPswVyJrIkSvrkaiOkpGX2QvI3xF
VOreK6RELaIc3fLMhtKfZ/Ubzoet8BhI34HtXr3eOKAXt4gPxyMQ5XL4d+xtkN+Q
Pz/U59rJBpY1OzIgID5dTZib/5IA2zy+GDtxgfAOrpNkENTJqatNdbuI5vKejfLe
I06/3PAmpDN5Fl9Vl7Wd8liSDX94EzEfzv6XeahZpnK+cK62hBGR8Lj0ez68CEP1
+Xp0dFNjp2Y7bqv0OE2vGgtkaxAp7SLucsCsWdx8aoDCt0K7hGzoXTGKiJl/ivZV
Dvqxablh7kQhvy/1hWxSwZabeWLQCU07B7sgW0oy5IlUvu3sc0VFlp9KNbZHaMvh
4cmXG9NsqBA5eLNxeSM2kO0sfT0hSS3FJlyzwGYaMad0Br4mCo6TBOXh1ekzLuTE
uhWX/V9O2k5F2TUjmcW16caxt/eYPtJ5HrLUkt8SGWCX24HXSrUkGdLHjWnxH5jb
kxtzxBYLE/KYW6+zGfids5n+6ATF5KuLYrrs12Yfwp7Ikp/DT4l/MWsA5gJwrh3P
W15asebQz03vrm6dZmSulUytqZnnij57aD9nhOt8tABAYm/iMaxU42/qiQz/5w==
-----END CERTIFICATE-----
