Certificate:
    Data:
        Version: 3 (0x2)
        Serial Number: 3 (0x3)
    Signature Algorithm: sha256WithRSAEncryption
        Issuer: C=CA, ST=ON, L=TO, O=PIV Org, OU=PIV Org, CN=piv.org/emailAddress=ca@piv.org
        Validity
            Not Before: Aug 19 19:20:53 2020 GMT
            Not After : May 16 19:20:53 2023 GMT
        Subject: C=CA, ST=ON, L=TO, O=PIV Org, OU=PIV Org, CN=piv.org
        Subject Public Key Info:
            Public Key Algorithm: rsaEncryption
                Public-Key: (2048 bit)
                Modulus:
                    00:a4:95:b9:78:f0:b3:db:71:51:57:34:75:9c:46:
                    71:15:5d:ac:2f:cc:d0:8c:72:22:d1:68:50:82:a0:
                    a2:d4:b7:ae:cc:78:14:6a:ce:3f:5a:8d:07:48:fb:
                    6b:59:71:a4:e5:25:4d:b1:cd:23:b8:af:7e:6c:af:
                    85:9e:55:e7:fc:e1:e6:e3:da:e6:2f:e5:f6:34:fc:
                    e7:e6:b1:1e:3d:59:ef:31:d1:b1:8c:dc:30:20:99:
                    5b:15:e7:96:70:62:bb:e3:3c:0d:09:0f:e7:d2:4b:
                    5d:2f:f7:22:0c:63:83:26:d4:c3:02:9c:85:94:2a:
                    64:10:87:f4:a1:38:a7:ed:a2:7b:f1:a3:56:29:5a:
                    5d:35:0f:f4:73:2e:18:d8:e6:80:b2:3e:a3:cf:d6:
                    fa:4e:e1:03:c6:62:6c:9f:8b:25:1e:88:b3:a4:87:
                    d4:09:39:c1:6f:a6:56:60:9f:89:d2:3f:c0:df:92:
                    e2:b0:db:a3:1e:de:59:e8:e9:f2:cf:c8:f1:8c:06:
                    83:9e:5d:58:9c:53:e1:56:33:6f:79:b4:13:4f:72:
                    0f:56:fe:06:41:ba:70:36:80:53:93:2b:83:9f:8b:
                    df:38:fd:c9:f5:e1:04:c2:b0:ad:b6:9b:f0:0c:71:
                    17:24:7b:7d:df:d9:dd:34:59:1d:8d:13:28:5f:e9:
                    b6:0d
                Exponent: 65537 (0x10001)
        X509v3 extensions:
            X509v3 Subject Key Identifier: 
                9F:AE:74:1C:02:AD:78:3C:12:DA:48:38:3F:94:7F:33:41:1F:49:EC
            X509v3 Authority Key Identifier: 
                keyid:67:5B:15:65:9A:53:ED:BB:A1:24:CD:F9:69:B6:34:55:A2:5D:97:D5

            X509v3 Basic Constraints: 
                CA:FALSE
            X509v3 Key Usage: 
                Digital Signature, Key Encipherment
    Signature Algorithm: sha256WithRSAEncryption
         72:2f:a7:7d:44:44:73:3b:27:e8:9b:b1:bc:fd:45:00:8b:ae:
         1f:1f:89:59:64:1a:6a:89:b8:1f:1b:40:14:5a:07:b0:c3:1f:
         47:a1:95:c3:3b:21:70:6f:2b:d2:4d:a7:66:5e:c2:68:b7:5c:
         93:c8:85:e3:97:cd:36:df:7f:50:74:e5:5f:d7:42:72:fb:e5:
         73:7d:51:bf:35:88:1f:15:05:b1:d0:33:f8:12:f4:7a:f3:13:
         40:5d:2b:dc:9c:f8:aa:31:11:6b:93:69:f7:57:89:1c:3c:ec:
         3c:10:8a:4d:70:16:8e:ac:e8:8c:d9:00:1a:8b:47:f9:eb:8b:
         10:69:43:a0:b2:d6:6b:28:7f:ad:90:60:b5:40:6e:70:1c:68:
         85:20:4e:70:39:9c:55:af:13:54:2f:3d:a9:42:53:58:f6:ed:
         19:1a:58:ba:8a:ea:99:f6:ef:57:b9:ef:fc:8a:66:16:39:bc:
         71:34:0b:fc:48:9a:76:56:d1:af:c9:c5:4f:be:e5:7e:27:ee:
         8d:0a:d7:aa:2b:15:dc:3c:96:d5:7e:01:d7:03:67:21:2c:d3:
         71:10:08:9a:a5:e0:77:ff:ed:59:dd:e1:5b:17:91:c6:24:42:
         95:e7:13:f2:9f:ac:65:b7:30:67:6a:0a:e6:81:a4:c8:d6:e9:
         94:3b:00:17:2f:d1:fa:f9:71:f4:72:44:0b:75:9f:fb:9b:d3:
         f4:c2:86:b2:4d:28:2d:a8:d8:7f:92:7d:2d:c1:02:9d:99:59:
         63:cf:f0:f1:c6:89:39:71:fc:4f:33:90:50:46:e4:2b:63:36:
         78:49:f6:52:4f:62:0f:ce:ae:3a:5c:16:88:52:f5:ad:54:a2:
         f9:f3:7a:5f:ef:be:48:22:98:98:87:38:f7:ae:2b:83:ba:38:
         07:f2:2c:9c:4d:52:12:91:3c:d3:2f:eb:1a:1a:53:71:bd:4a:
         46:c1:45:50:ad:cf:7f:74:44:3c:ad:1d:fa:08:c9:46:76:f6:
         0e:0d:f5:27:19:a5:89:06:0c:a0:1e:20:77:d6:9e:63:7e:4f:
         9a:b6:af:b0:0c:2c:b2:48:72:8e:5b:b2:10:d9:be:0b:e8:cc:
         64:27:e9:89:4f:5f:13:ef:b9:f8:a9:7e:79:c7:a7:08:0b:3c:
         3a:54:eb:bd:d8:9e:9c:a6:e4:f9:ed:24:b1:9b:d8:c5:9f:52:
         cf:1e:90:06:ba:c4:08:da:bb:aa:c6:08:73:66:d6:41:1a:f0:
         31:a1:c4:9b:6b:0a:63:ce:a4:b0:cb:ab:45:d9:4f:b9:b7:9f:
         f5:28:c0:0f:04:71:19:5d:60:08:32:7b:05:70:38:aa:5e:0f:
         48:d3:a3:1a:30:8a:0c:a1
-----BEGIN CERTIFICATE-----
MIIEqjCCApKgAwIBAgIBAzANBgkqhkiG9w0BAQsFADB4MQswCQYDVQQGEwJDQTEL
MAkGA1UECAwCT04xCzAJBgNVBAcMAlRPMRAwDgYDVQQKDAdQSVYgT3JnMRAwDgYD
VQQLDAdQSVYgT3JnMRAwDgYDVQQDDAdwaXYub3JnMRkwFwYJKoZIhvcNAQkBFgpj
YUBwaXYub3JnMB4XDTIwMDgxOTE5MjA1M1oXDTIzMDUxNjE5MjA1M1owXTELMAkG
A1UEBhMCQ0ExCzAJBgNVBAgMAk9OMQswCQYDVQQHDAJUTzEQMA4GA1UECgwHUElW
IE9yZzEQMA4GA1UECwwHUElWIE9yZzEQMA4GA1UEAwwHcGl2Lm9yZzCCASIwDQYJ
KoZIhvcNAQEBBQADggEPADCCAQoCggEBAKSVuXjws9txUVc0dZxGcRVdrC/M0Ixy
ItFoUIKgotS3rsx4FGrOP1qNB0j7a1lxpOUlTbHNI7ivfmyvhZ5V5/zh5uPa5i/l
9jT85+axHj1Z7zHRsYzcMCCZWxXnlnBiu+M8DQkP59JLXS/3IgxjgybUwwKchZQq
ZBCH9KE4p+2ie/GjVilaXTUP9HMuGNjmgLI+o8/W+k7hA8ZibJ+LJR6Is6SH1Ak5
wW+mVmCfidI/wN+S4rDbox7eWejp8s/I8YwGg55dWJxT4VYzb3m0E09yD1b+BkG6
cDaAU5Mrg5+L3zj9yfXhBMKwrbab8AxxFyR7fd/Z3TRZHY0TKF/ptg0CAwEAAaNa
MFgwHQYDVR0OBBYEFJ+udBwCrXg8EtpIOD+UfzNBH0nsMB8GA1UdIwQYMBaAFGdb
FWWaU+27oSTN+Wm2NFWiXZfVMAkGA1UdEwQCMAAwCwYDVR0PBAQDAgWgMA0GCSqG
SIb3DQEBCwUAA4ICAQByL6d9RERzOyfom7G8/UUAi64fH4lZZBpqibgfG0AUWgew
wx9HoZXDOyFwbyvSTadmXsJot1yTyIXjl802339QdOVf10Jy++VzfVG/NYgfFQWx
0DP4EvR68xNAXSvcnPiqMRFrk2n3V4kcPOw8EIpNcBaOrOiM2QAai0f564sQaUOg
stZrKH+tkGC1QG5wHGiFIE5wOZxVrxNULz2pQlNY9u0ZGli6iuqZ9u9Xue/8imYW
ObxxNAv8SJp2VtGvycVPvuV+J+6NCteqKxXcPJbVfgHXA2chLNNxEAiapeB3/+1Z
3eFbF5HGJEKV5xPyn6xltzBnagrmgaTI1umUOwAXL9H6+XH0ckQLdZ/7m9P0woay
TSgtqNh/kn0twQKdmVljz/Dxxok5cfxPM5BQRuQrYzZ4SfZST2IPzq46XBaIUvWt
VKL583pf775IIpiYhzj3riuDujgH8iycTVISkTzTL+saGlNxvUpGwUVQrc9/dEQ8
rR36CMlGdvYODfUnGaWJBgygHiB31p5jfk+atq+wDCyySHKOW7IQ2b4L6MxkJ+mJ
T18T77n4qX55x6cICzw6VOu92J6cpuT57SSxm9jFn1LPHpAGusQI2ruqxghzZtZB
GvAxocSbawpjzqSwy6tF2U+5t5/1KMAPBHEZXWAIMnsFcDiqXg9I06MaMIoMoQ==
-----END CERTIFICATE-----
