Certificate:
    Data:
        Version: 3 (0x2)
        Serial Number: 4 (0x4)
    Signature Algorithm: sha256WithRSAEncryption
        Issuer: C=CA, ST=ON, L=TO, O=PIV Org, OU=PIV Org, CN=piv.org/emailAddress=ca@piv.org
        Validity
            Not Before: Aug 19 19:43:00 2020 GMT
            Not After : May 16 19:43:00 2023 GMT
        Subject: C=CA, ST=ON, L=TO, O=PIV Org, OU=PIV Org, CN=piv.org
        Subject Public Key Info:
            Public Key Algorithm: rsaEncryption
                Public-Key: (2048 bit)
                Modulus:
                    00:ce:62:f4:f7:f7:e7:56:1f:d2:2c:14:2e:f0:67:
                    2b:ab:2e:3c:5c:15:1d:47:37:cd:d9:ce:e0:80:32:
                    c0:46:5d:5d:d9:cc:fd:e5:5a:cd:5f:7c:7e:a6:53:
                    92:38:69:f8:9f:98:b1:8b:08:94:bc:ef:3e:3b:4a:
                    0b:82:3e:41:d6:34:54:ab:21:fd:d2:1d:f0:50:72:
                    d4:09:52:2c:33:e1:79:29:b9:d3:61:17:be:ea:1f:
                    b9:de:a2:f9:c5:d5:5a:f5:3e:5c:25:44:6e:27:b0:
                    64:41:85:ad:92:dc:db:61:eb:47:f4:48:30:9f:b3:
                    5f:20:93:44:e4:4d:55:be:0e:4d:66:f5:2b:46:8f:
                    b6:33:59:8f:ca:cc:ab:55:81:9d:49:f0:fd:cd:01:
                    55:dc:fa:06:f9:46:c2:cc:44:9e:bd:da:2a:3b:7d:
                    a6:4e:95:a7:a1:9f:d5:99:13:6a:f1:36:c2:c3:a0:
                    06:a6:31:7e:08:db:68:f1:41:0d:b1:29:74:9d:25:
                    1f:93:8d:d6:63:31:e8:de:b5:75:41:2f:19:4f:c6:
                    d1:6f:c1:d2:82:e9:66:39:c3:bc:37:66:f5:f5:d7:
                    5e:c8:18:59:69:32:3c:d5:a3:89:d4:c3:0c:fb:83:
                    65:02:c7:1e:c5:a5:65:be:e0:e8:f3:9c:85:8d:0e:
                    3f:bb
                Exponent: 65537 (0x10001)
        X509v3 extensions:
            X509v3 Subject Key Identifier: 
                48:53:26:EF:D2:D1:E7:58:55:CB:F9:D2:2D:BF:76:E5:9B:91:99:93
            X509v3 Authority Key Identifier: 
                keyid:67:5B:15:65:9A:53:ED:BB:A1:24:CD:F9:69:B6:34:55:A2:5D:97:D5

            X509v3 Basic Constraints: 
                CA:FALSE
            X509v3 Key Usage: 
                Digital Signature, Key Encipherment
    Signature Algorithm: sha256WithRSAEncryption
         0a:fd:26:01:40:d1:32:2e:9d:30:db:c0:3a:49:a8:dd:4d:be:
         dc:44:40:58:75:8d:a2:02:8e:15:d3:64:f7:14:8a:fb:ac:73:
         43:9c:46:3c:13:b0:79:1b:7c:ea:be:ea:4f:85:4c:41:0d:24:
         26:9d:66:e9:47:d4:0d:9a:46:78:45:1c:a6:64:32:35:35:6d:
         7e:1e:79:f4:d8:c9:80:c7:34:8c:f2:90:ea:49:29:cc:2a:ac:
         85:50:82:fd:f9:86:8d:a6:e8:58:96:b2:9d:06:61:65:31:bd:
         78:2d:f6:5c:5c:65:73:88:b2:d2:b4:1e:b5:ea:d4:ee:f8:18:
         9c:f4:c3:92:9e:cc:0c:89:5d:3a:e5:7b:db:20:cc:0a:fb:9a:
         bd:3a:7b:08:97:07:a0:44:62:87:a2:a2:0d:be:b0:fb:53:95:
         94:9e:33:45:7f:ef:79:c5:1f:e4:f5:36:47:c1:ed:72:71:ec:
         ff:e4:35:a8:02:85:84:a2:8a:c5:69:77:17:bf:31:98:61:0c:
         f6:e4:40:f6:dc:79:90:6f:14:db:18:f0:46:db:67:25:28:b8:
         02:6c:15:43:14:5d:a9:fc:0a:be:bd:b0:f0:13:ad:48:62:01:
         fe:b0:1e:da:4e:2a:a3:18:d3:49:dc:81:c5:5a:d8:6b:43:ec:
         35:2b:10:cc:91:2c:10:53:cf:96:0a:51:a9:3a:b0:52:38:db:
         51:80:76:a2:22:16:96:fb:57:4f:42:cc:f2:be:2b:34:50:d6:
         51:bc:84:77:60:55:4e:98:7e:7f:d4:26:87:90:2c:2c:d1:58:
         15:9e:22:bd:8c:3d:8a:96:aa:ef:62:72:f1:78:6c:d1:48:6e:
         4b:32:0e:1a:69:29:5c:dc:20:b0:df:02:a4:f1:0d:f1:8a:2a:
         e7:a5:ef:d0:e5:46:c9:3a:2a:56:a0:a1:52:94:a5:05:db:f3:
         aa:6e:69:83:67:a9:66:b0:a2:ae:32:73:98:23:72:49:67:91:
         1b:9e:01:d6:5c:2d:de:97:3b:5b:86:ad:f0:e2:81:0a:da:43:
         57:18:a3:44:db:53:de:b6:8f:2d:b1:e4:d6:03:4a:c0:9e:3c:
         ed:2e:b8:24:45:57:18:c8:9d:47:ab:df:da:57:2c:91:e1:12:
         a2:57:e2:d4:42:96:1f:0c:70:77:f5:50:75:7a:14:e4:3b:42:
         c7:23:0e:b5:87:d1:89:c9:c4:27:42:c3:81:7c:4f:24:d2:34:
         a5:39:58:55:ca:49:83:d7:3f:1c:4d:0b:51:dd:d1:7a:94:2f:
         0b:d1:f1:d3:c7:a9:c6:8e:60:7c:c5:79:da:c3:ef:f2:5f:d9:
         71:5c:c8:5c:18:8b:a2:d5
-----BEGIN CERTIFICATE-----
MIIEqjCCApKgAwIBAgIBBDANBgkqhkiG9w0BAQsFADB4MQswCQYDVQQGEwJDQTEL
MAkGA1UECAwCT04xCzAJBgNVBAcMAlRPMRAwDgYDVQQKDAdQSVYgT3JnMRAwDgYD
VQQLDAdQSVYgT3JnMRAwDgYDVQQDDAdwaXYub3JnMRkwFwYJKoZIhvcNAQkBFgpj
YUBwaXYub3JnMB4XDTIwMDgxOTE5NDMwMFoXDTIzMDUxNjE5NDMwMFowXTELMAkG
A1UEBhMCQ0ExCzAJBgNVBAgMAk9OMQswCQYDVQQHDAJUTzEQMA4GA1UECgwHUElW
IE9yZzEQMA4GA1UECwwHUElWIE9yZzEQMA4GA1UEAwwHcGl2Lm9yZzCCASIwDQYJ
KoZIhvcNAQEBBQADggEPADCCAQoCggEBAM5i9Pf351Yf0iwULvBnK6suPFwVHUc3
zdnO4IAywEZdXdnM/eVazV98fqZTkjhp+J+YsYsIlLzvPjtKC4I+QdY0VKsh/dId
8FBy1AlSLDPheSm502EXvuofud6i+cXVWvU+XCVEbiewZEGFrZLc22HrR/RIMJ+z
XyCTRORNVb4OTWb1K0aPtjNZj8rMq1WBnUnw/c0BVdz6BvlGwsxEnr3aKjt9pk6V
p6Gf1ZkTavE2wsOgBqYxfgjbaPFBDbEpdJ0lH5ON1mMx6N61dUEvGU/G0W/B0oLp
ZjnDvDdm9fXXXsgYWWkyPNWjidTDDPuDZQLHHsWlZb7g6POchY0OP7sCAwEAAaNa
MFgwHQYDVR0OBBYEFEhTJu/S0edYVcv50i2/duWbkZmTMB8GA1UdIwQYMBaAFGdb
FWWaU+27oSTN+Wm2NFWiXZfVMAkGA1UdEwQCMAAwCwYDVR0PBAQDAgWgMA0GCSqG
SIb3DQEBCwUAA4ICAQAK/SYBQNEyLp0w28A6SajdTb7cREBYdY2iAo4V02T3FIr7
rHNDnEY8E7B5G3zqvupPhUxBDSQmnWbpR9QNmkZ4RRymZDI1NW1+Hnn02MmAxzSM
8pDqSSnMKqyFUIL9+YaNpuhYlrKdBmFlMb14LfZcXGVziLLStB616tTu+Bic9MOS
nswMiV065XvbIMwK+5q9OnsIlwegRGKHoqINvrD7U5WUnjNFf+95xR/k9TZHwe1y
cez/5DWoAoWEoorFaXcXvzGYYQz25ED23HmQbxTbGPBG22clKLgCbBVDFF2p/Aq+
vbDwE61IYgH+sB7aTiqjGNNJ3IHFWthrQ+w1KxDMkSwQU8+WClGpOrBSONtRgHai
IhaW+1dPQszyvis0UNZRvIR3YFVOmH5/1CaHkCws0VgVniK9jD2KlqrvYnLxeGzR
SG5LMg4aaSlc3CCw3wKk8Q3xiirnpe/Q5UbJOipWoKFSlKUF2/OqbmmDZ6lmsKKu
MnOYI3JJZ5EbngHWXC3elztbhq3w4oEK2kNXGKNE21Peto8tseTWA0rAnjztLrgk
RVcYyJ1Hq9/aVyyR4RKiV+LUQpYfDHB39VB1ehTkO0LHIw61h9GJycQnQsOBfE8k
0jSlOVhVykmD1z8cTQtR3dF6lC8L0fHTx6nGjmB8xXnaw+/yX9lxXMhcGIui1Q==
-----END CERTIFICATE-----
