Certificate:
    Data:
        Version: 3 (0x2)
        Serial Number: 5 (0x5)
    Signature Algorithm: sha256WithRSAEncryption
        Issuer: C=CA, ST=ON, L=TO, O=PIV Org, OU=PIV Org, CN=piv.org/emailAddress=ca@piv.org
        Validity
            Not Before: Aug 19 19:54:11 2020 GMT
            Not After : May 16 19:54:11 2023 GMT
        Subject: C=CA, ST=ON, L=TO, O=PIV Org, OU=PIV Org, CN=piv.org
        Subject Public Key Info:
            Public Key Algorithm: rsaEncryption
                Public-Key: (4096 bit)
                Modulus:
                    00:a0:da:2b:f9:ce:b6:68:ea:19:d9:5a:28:d6:f4:
                    a9:18:33:e8:58:bf:53:3a:a3:e1:a5:17:0e:1b:64:
                    77:6e:85:f5:61:e6:32:76:73:9c:f4:d7:34:37:79:
                    ad:2b:00:33:22:90:a9:45:57:10:3d:34:90:66:c1:
                    76:fc:d3:4b:ac:fe:bf:31:e7:38:06:ef:0a:63:fa:
                    d2:ec:5e:bc:a1:87:13:2b:ac:cf:23:73:7b:8c:22:
                    ee:8a:80:23:c1:89:bf:12:89:94:ac:78:b8:58:93:
                    17:65:4a:34:78:e8:c5:6d:9a:a5:02:67:4c:29:78:
                    80:74:3a:8c:e9:54:8d:4b:6d:13:4e:97:62:2a:83:
                    0c:c1:74:a3:2f:6b:44:b1:18:08:88:be:0b:40:34:
                    64:c8:77:82:a3:e8:23:22:70:f8:bf:38:da:06:38:
                    44:e8:04:5e:d9:b4:1f:70:34:20:e6:da:79:df:a5:
                    6b:d8:c9:f9:dd:79:a6:24:e7:05:85:b6:fc:03:7c:
                    af:99:c1:b7:b9:ef:69:2d:24:4c:eb:0c:da:2d:2f:
                    a0:4d:fb:28:8b:4c:a1:ce:13:22:31:67:3c:aa:e7:
                    de:d1:d1:1a:d0:81:20:b4:0c:f9:83:3c:20:2b:f0:
                    36:f5:5c:26:b6:96:17:8e:ee:0a:7f:16:49:97:9b:
                    d2:dc:10:b9:07:67:d4:40:47:a2:cb:d6:e6:6a:56:
                    a0:2f:53:c7:2e:f3:f5:d2:3d:65:f8:19:0e:05:81:
                    c3:cb:ce:27:49:4c:ac:59:68:65:63:8a:c4:91:8d:
                    1f:62:94:d7:47:04:80:37:22:46:79:60:f2:d9:0b:
                    46:24:c2:ad:53:3b:2d:3e:63:8e:06:57:d0:af:d6:
                    87:d3:17:b5:d3:00:47:6b:04:5d:06:d6:a5:1f:1e:
                    9f:d2:21:2b:28:44:0a:7f:1e:97:57:76:5e:14:ff:
                    0e:33:8c:b2:e9:eb:f2:87:20:f1:86:a8:55:be:53:
                    fe:50:f3:e9:2f:3b:fc:2a:4a:c7:e1:ed:4f:6d:9a:
                    e0:fa:82:d6:45:4c:1d:df:98:2f:20:18:8e:e2:e0:
                    fb:88:7c:d6:7b:da:de:9b:7d:3f:6c:cf:99:3b:3d:
                    5f:89:24:3d:4f:ed:e0:fe:ef:b5:d4:5e:90:51:ef:
                    42:68:6a:14:75:60:0b:f2:4b:7a:37:0d:0f:f7:91:
                    ab:5e:d5:83:5a:1c:b3:c3:e0:05:06:27:8a:bc:d2:
                    bd:ed:94:4a:58:32:ce:29:fc:52:39:52:fd:98:93:
                    e0:09:a4:c2:dc:ad:ff:de:20:fb:34:45:02:9f:df:
                    74:46:62:41:e0:b1:92:e8:ed:de:ac:7f:cc:a9:d7:
                    eb:12:9f
                Exponent: 65537 (0x10001)
        X509v3 extensions:
            X509v3 Subject Key Identifier: 
                19:7F:4F:E3:A9:C0:88:EB:13:8E:06:42:A8:A0:B5:5B:FD:9B:96:43
            X509v3 Authority Key Identifier: 
                keyid:24:04:E6:8F:3C:23:20:F2:C0:A0:DC:90:B5:8A:30:B1:6E:E2:E4:9F

            X509v3 Basic Constraints: 
                CA:FALSE
            X509v3 Key Usage: 
                Digital Signature, Key Encipherment
    Signature Algorithm: sha256WithRSAEncryption
         7b:f4:19:e7:2f:7e:71:44:36:15:70:21:bd:d0:a3:31:ff:c6:
         2d:9a:6a:a0:eb:92:2b:20:e9:1e:18:8f:36:57:30:66:2e:88:
         ae:24:70:88:1f:97:85:4b:59:1f:77:9c:51:ee:f5:a6:62:ae:
         ba:c1:19:b9:2f:ff:e9:41:1f:d5:72:22:2d:a9:81:19:1c:6c:
         d8:c5:dd:ce:c6:26:aa:22:81:2c:1d:90:a6:70:f0:21:27:0e:
         fc:12:0f:b0:52:09:69:86:cb:55:33:84:46:f4:42:38:42:86:
         eb:2c:7c:c5:f1:16:77:26:f2:fa:ee:8a:40:33:86:38:64:45:
         e9:7f:f5:98:b1:17:40:9d:8e:55:56:04:14:cc:4d:91:45:a6:
         89:0b:2a:f8:93:ff:82:11:ab:de:6a:43:89:9b:13:c4:5b:0f:
         43:57:a5:e6:08:cd:93:e7:18:fa:cd:73:21:fc:f8:d5:39:a1:
         97:5b:1a:f1:e0:10:69:83:8f:62:1e:67:ef:20:55:a8:fc:5b:
         13:eb:6f:7f:7e:62:6a:00:e1:73:dd:17:bc:0e:2d:0e:b5:69:
         90:f5:d8:d4:a4:b4:e2:43:fc:23:ef:63:57:32:f5:c9:77:c8:
         f7:0c:50:31:98:aa:2d:eb:41:3d:86:4f:c7:21:c2:fd:e4:98:
         e3:8f:d9:cb:4a:a0:41:b9:b2:f3:a8:59:52:26:57:31:04:8d:
         00:31:2f:10:62:f1:f1:68:ac:c1:37:3a:5d:e1:96:7b:9f:4e:
         a2:72:4a:37:52:05:5e:51:07:8e:a2:48:08:15:74:ff:17:10:
         2b:1b:8d:f4:2a:d2:ff:04:86:27:d4:fb:74:bc:e3:a2:03:c1:
         57:cc:95:f9:c7:34:fb:60:60:2d:c5:a6:4d:7f:52:57:7f:4c:
         9e:5f:94:85:e6:26:49:34:54:da:0a:4b:ef:46:18:e4:33:f7:
         8b:01:f8:fd:09:3e:7b:67:06:29:4c:35:71:b4:e4:b0:d6:9c:
         a6:f3:ca:66:1b:b2:63:7b:ac:57:81:fe:0b:8c:d6:43:6b:71:
         d2:4d:1e:08:75:0f:be:b5:b5:d6:2a:00:4e:da:de:db:33:09:
         00:bf:eb:70:f1:2d:16:d2:e1:c8:54:d2:f2:3d:cd:24:c8:23:
         7d:38:a8:91:56:e0:83:be:5a:b5:e6:71:d0:47:69:ef:e8:ec:
         04:6f:d9:79:15:8b:78:07:3a:0c:6e:1f:c8:d0:de:9b:7c:ac:
         ab:77:87:bb:de:69:0f:f1:7f:4e:e6:98:1e:8b:0a:e0:58:c1:
         c7:7d:07:88:41:5c:f7:8d:9a:05:82:6f:36:21:30:f5:51:e5:
         27:39:01:26:4d:67:d3:8f
-----BEGIN CERTIFICATE-----
MIIFqjCCA5KgAwIBAgIBBTANBgkqhkiG9w0BAQsFADB4MQswCQYDVQQGEwJDQTEL
MAkGA1UECAwCT04xCzAJBgNVBAcMAlRPMRAwDgYDVQQKDAdQSVYgT3JnMRAwDgYD
VQQLDAdQSVYgT3JnMRAwDgYDVQQDDAdwaXYub3JnMRkwFwYJKoZIhvcNAQkBFgpj
YUBwaXYub3JnMB4XDTIwMDgxOTE5NTQxMVoXDTIzMDUxNjE5NTQxMVowXTELMAkG
A1UEBhMCQ0ExCzAJBgNVBAgMAk9OMQswCQYDVQQHDAJUTzEQMA4GA1UECgwHUElW
IE9yZzEQMA4GA1UECwwHUElWIE9yZzEQMA4GA1UEAwwHcGl2Lm9yZzCCAiIwDQYJ
KoZIhvcNAQEBBQADggIPADCCAgoCggIBAKDaK/nOtmjqGdlaKNb0qRgz6Fi/Uzqj
4aUXDhtkd26F9WHmMnZznPTXNDd5rSsAMyKQqUVXED00kGbBdvzTS6z+vzHnOAbv
CmP60uxevKGHEyuszyNze4wi7oqAI8GJvxKJlKx4uFiTF2VKNHjoxW2apQJnTCl4
gHQ6jOlUjUttE06XYiqDDMF0oy9rRLEYCIi+C0A0ZMh3gqPoIyJw+L842gY4ROgE
Xtm0H3A0IObaed+la9jJ+d15piTnBYW2/AN8r5nBt7nvaS0kTOsM2i0voE37KItM
oc4TIjFnPKrn3tHRGtCBILQM+YM8ICvwNvVcJraWF47uCn8WSZeb0twQuQdn1EBH
osvW5mpWoC9Txy7z9dI9ZfgZDgWBw8vOJ0lMrFloZWOKxJGNH2KU10cEgDciRnlg
8tkLRiTCrVM7LT5jjgZX0K/Wh9MXtdMAR2sEXQbWpR8en9IhKyhECn8el1d2XhT/
DjOMsunr8ocg8YaoVb5T/lDz6S87/CpKx+HtT22a4PqC1kVMHd+YLyAYjuLg+4h8
1nva3pt9P2zPmTs9X4kkPU/t4P7vtdRekFHvQmhqFHVgC/JLejcND/eRq17Vg1oc
s8PgBQYnirzSve2USlgyzin8UjlS/ZiT4Amkwtyt/94g+zRFAp/fdEZiQeCxkujt
3qx/zKnX6xKfAgMBAAGjWjBYMB0GA1UdDgQWBBQZf0/jqcCI6xOOBkKooLVb/ZuW
QzAfBgNVHSMEGDAWgBQkBOaPPCMg8sCg3JC1ijCxbuLknzAJBgNVHRMEAjAAMAsG
A1UdDwQEAwIFoDANBgkqhkiG9w0BAQsFAAOCAgEAe/QZ5y9+cUQ2FXAhvdCjMf/G
LZpqoOuSKyDpHhiPNlcwZi6IriRwiB+XhUtZH3ecUe71pmKuusEZuS//6UEf1XIi
LamBGRxs2MXdzsYmqiKBLB2QpnDwIScO/BIPsFIJaYbLVTOERvRCOEKG6yx8xfEW
dyby+u6KQDOGOGRF6X/1mLEXQJ2OVVYEFMxNkUWmiQsq+JP/ghGr3mpDiZsTxFsP
Q1el5gjNk+cY+s1zIfz41Tmhl1sa8eAQaYOPYh5n7yBVqPxbE+tvf35iagDhc90X
vA4tDrVpkPXY1KS04kP8I+9jVzL1yXfI9wxQMZiqLetBPYZPxyHC/eSY44/Zy0qg
Qbmy86hZUiZXMQSNADEvEGLx8WiswTc6XeGWe59OonJKN1IFXlEHjqJICBV0/xcQ
KxuN9CrS/wSGJ9T7dLzjogPBV8yV+cc0+2BgLcWmTX9SV39Mnl+UheYmSTRU2gpL
70YY5DP3iwH4/Qk+e2cGKUw1cbTksNacpvPKZhuyY3usV4H+C4zWQ2tx0k0eCHUP
vrW11ioATtre2zMJAL/rcPEtFtLhyFTS8j3NJMgjfTiokVbgg75ateZx0Edp7+js
BG/ZeRWLeAc6DG4fyNDem3ysq3eHu95pD/F/TuaYHosK4FjBx30HiEFc942aBYJv
NiEw9VHlJzkBJk1n048=
-----END CERTIFICATE-----
