Certificate:
    Data:
        Version: 3 (0x2)
        Serial Number: 6 (0x6)
    Signature Algorithm: sha256WithRSAEncryption
        Issuer: C=CA, ST=ON, L=TO, O=PIV Org, OU=PIV Org, CN=piv.org/emailAddress=ca@piv.org
        Validity
            Not Before: Aug 19 20:01:19 2020 GMT
            Not After : May 16 20:01:19 2023 GMT
        Subject: C=CA, ST=ON, L=TO, O=PIV Org, OU=PIV Org, CN=piv.org
        Subject Public Key Info:
            Public Key Algorithm: rsaEncryption
                Public-Key: (4096 bit)
                Modulus:
                    00:a0:da:2b:f9:ce:b6:68:ea:19:d9:5a:28:d6:f4:
                    a9:18:33:e8:58:bf:53:3a:a3:e1:a5:17:0e:1b:64:
                    77:6e:85:f5:61:e6:32:76:73:9c:f4:d7:34:37:79:
                    ad:2b:00:33:22:90:a9:45:57:10:3d:34:90:66:c1:
                    76:fc:d3:4b:ac:fe:bf:31:e7:38:06:ef:0a:63:fa:
                    d2:ec:5e:bc:a1:87:13:2b:ac:cf:23:73:7b:8c:22:
                    ee:8a:80:23:c1:89:bf:12:89:94:ac:78:b8:58:93:
                    17:65:4a:34:78:e8:c5:6d:9a:a5:02:67:4c:29:78:
                    80:74:3a:8c:e9:54:8d:4b:6d:13:4e:97:62:2a:83:
                    0c:c1:74:a3:2f:6b:44:b1:18:08:88:be:0b:40:34:
                    64:c8:77:82:a3:e8:23:22:70:f8:bf:38:da:06:38:
                    44:e8:04:5e:d9:b4:1f:70:34:20:e6:da:79:df:a5:
                    6b:d8:c9:f9:dd:79:a6:24:e7:05:85:b6:fc:03:7c:
                    af:99:c1:b7:b9:ef:69:2d:24:4c:eb:0c:da:2d:2f:
                    a0:4d:fb:28:8b:4c:a1:ce:13:22:31:67:3c:aa:e7:
                    de:d1:d1:1a:d0:81:20:b4:0c:f9:83:3c:20:2b:f0:
                    36:f5:5c:26:b6:96:17:8e:ee:0a:7f:16:49:97:9b:
                    d2:dc:10:b9:07:67:d4:40:47:a2:cb:d6:e6:6a:56:
                    a0:2f:53:c7:2e:f3:f5:d2:3d:65:f8:19:0e:05:81:
                    c3:cb:ce:27:49:4c:ac:59:68:65:63:8a:c4:91:8d:
                    1f:62:94:d7:47:04:80:37:22:46:79:60:f2:d9:0b:
                    46:24:c2:ad:53:3b:2d:3e:63:8e:06:57:d0:af:d6:
                    87:d3:17:b5:d3:00:47:6b:04:5d:06:d6:a5:1f:1e:
                    9f:d2:21:2b:28:44:0a:7f:1e:97:57:76:5e:14:ff:
                    0e:33:8c:b2:e9:eb:f2:87:20:f1:86:a8:55:be:53:
                    fe:50:f3:e9:2f:3b:fc:2a:4a:c7:e1:ed:4f:6d:9a:
                    e0:fa:82:d6:45:4c:1d:df:98:2f:20:18:8e:e2:e0:
                    fb:88:7c:d6:7b:da:de:9b:7d:3f:6c:cf:99:3b:3d:
                    5f:89:24:3d:4f:ed:e0:fe:ef:b5:d4:5e:90:51:ef:
                    42:68:6a:14:75:60:0b:f2:4b:7a:37:0d:0f:f7:91:
                    ab:5e:d5:83:5a:1c:b3:c3:e0:05:06:27:8a:bc:d2:
                    bd:ed:94:4a:58:32:ce:29:fc:52:39:52:fd:98:93:
                    e0:09:a4:c2:dc:ad:ff:de:20:fb:34:45:02:9f:df:
                    74:46:62:41:e0:b1:92:e8:ed:de:ac:7f:cc:a9:d7:
                    eb:12:9f
                Exponent: 65537 (0x10001)
        X509v3 extensions:
            X509v3 Subject Key Identifier: 
                19:7F:4F:E3:A9:C0:88:EB:13:8E:06:42:A8:A0:B5:5B:FD:9B:96:43
            X509v3 Authority Key Identifier: 
                keyid:24:04:E6:8F:3C:23:20:F2:C0:A0:DC:90:B5:8A:30:B1:6E:E2:E4:9F

            X509v3 Basic Constraints: 
                CA:FALSE
            X509v3 Key Usage: 
                Digital Signature, Key Encipherment
            X509v3 CRL Distribution Points: 

                Full Name:
                  URI:https://github.com/rabisankarsahu-okta/crl/raw/master/test-x509-auth-idp-two-level-intermediate-ca2.crl

    Signature Algorithm: sha256WithRSAEncryption
         ae:ec:14:26:d2:0d:67:20:cb:75:2d:e1:2c:cd:2b:c1:e4:5f:
         ac:49:cd:ae:88:e4:b7:6b:01:3c:2e:69:2c:1a:76:d4:8b:62:
         3c:5f:a4:b9:37:85:36:94:0c:ab:9c:06:52:a7:be:fc:c7:65:
         fc:cc:a5:6f:de:26:db:08:87:fb:1e:d7:04:23:c0:90:0c:d9:
         98:66:0c:ba:65:a8:54:ce:6d:76:b9:90:42:f8:4f:c2:c5:84:
         11:28:9f:2d:f1:b5:f6:bb:15:21:1a:f6:14:42:b4:ad:41:c5:
         0c:db:0e:af:32:0b:a7:1d:1c:01:43:09:fe:09:90:0f:d8:e4:
         9c:f9:68:09:10:ef:0b:4c:00:6f:36:c2:61:5f:9b:c8:27:a7:
         62:65:fc:bd:6b:b1:30:c5:00:cb:44:31:37:f9:c3:6b:0e:33:
         a9:ec:dd:48:99:fa:23:d4:09:97:89:7a:ea:78:57:9e:ca:14:
         a8:56:8b:c0:0e:40:9a:48:7b:31:82:61:d5:00:e3:f1:3e:de:
         4a:87:84:2b:f9:69:ae:63:2d:fa:3d:a3:40:d6:e0:91:5c:07:
         87:c8:34:66:01:2b:38:3c:1c:64:32:0d:5c:46:e6:e6:cc:c6:
         de:24:c2:c3:54:12:6e:e6:ee:c6:ed:fe:c3:21:dc:b2:34:48:
         fe:67:35:13:d7:42:c1:ee:37:ad:79:de:ed:78:2c:fe:af:7e:
         b6:c5:77:0d:f6:8e:5f:78:28:85:c6:80:b4:78:9b:ea:31:13:
         cb:75:fd:02:02:ae:2d:83:a6:99:a2:92:f1:2d:d6:47:89:6d:
         83:49:94:aa:8e:fc:75:d3:b4:48:be:0f:a2:5f:aa:08:fe:de:
         01:d5:b3:49:a6:ab:85:3e:70:7b:14:db:24:50:06:45:94:de:
         b0:bb:88:8f:33:f9:93:f4:af:d0:d9:ad:a0:1d:b8:58:43:a0:
         9b:45:7e:9d:59:1f:8c:15:51:d4:72:8f:ab:b3:73:ce:ea:42:
         c5:35:f4:f3:c6:39:54:f0:83:24:3c:b2:2b:8a:41:7b:83:5a:
         3e:e3:25:bb:5e:9f:dc:6e:a3:62:68:f7:79:2d:bf:c1:03:4e:
         61:1c:cb:ce:9a:7d:cf:84:44:e1:fc:dd:48:5e:d5:5c:be:f1:
         57:1e:dd:e5:10:1a:79:0c:5b:e8:b9:f3:56:7b:80:90:fe:49:
         d0:eb:90:98:60:fd:d1:64:9d:1f:88:ab:85:f6:ab:7c:27:25:
         7b:25:69:c8:5e:b2:dd:66:a0:39:98:a7:aa:ef:a7:f3:39:ee:
         d7:68:0d:9c:2f:cf:b1:78:d9:8f:86:72:11:73:d9:88:b0:dd:
         8d:c1:82:02:a8:7f:11:b5
-----BEGIN CERTIFICATE-----
MIIGJjCCBA6gAwIBAgIBBjANBgkqhkiG9w0BAQsFADB4MQswCQYDVQQGEwJDQTEL
MAkGA1UECAwCT04xCzAJBgNVBAcMAlRPMRAwDgYDVQQKDAdQSVYgT3JnMRAwDgYD
VQQLDAdQSVYgT3JnMRAwDgYDVQQDDAdwaXYub3JnMRkwFwYJKoZIhvcNAQkBFgpj
YUBwaXYub3JnMB4XDTIwMDgxOTIwMDExOVoXDTIzMDUxNjIwMDExOVowXTELMAkG
A1UEBhMCQ0ExCzAJBgNVBAgMAk9OMQswCQYDVQQHDAJUTzEQMA4GA1UECgwHUElW
IE9yZzEQMA4GA1UECwwHUElWIE9yZzEQMA4GA1UEAwwHcGl2Lm9yZzCCAiIwDQYJ
KoZIhvcNAQEBBQADggIPADCCAgoCggIBAKDaK/nOtmjqGdlaKNb0qRgz6Fi/Uzqj
4aUXDhtkd26F9WHmMnZznPTXNDd5rSsAMyKQqUVXED00kGbBdvzTS6z+vzHnOAbv
CmP60uxevKGHEyuszyNze4wi7oqAI8GJvxKJlKx4uFiTF2VKNHjoxW2apQJnTCl4
gHQ6jOlUjUttE06XYiqDDMF0oy9rRLEYCIi+C0A0ZMh3gqPoIyJw+L842gY4ROgE
Xtm0H3A0IObaed+la9jJ+d15piTnBYW2/AN8r5nBt7nvaS0kTOsM2i0voE37KItM
oc4TIjFnPKrn3tHRGtCBILQM+YM8ICvwNvVcJraWF47uCn8WSZeb0twQuQdn1EBH
osvW5mpWoC9Txy7z9dI9ZfgZDgWBw8vOJ0lMrFloZWOKxJGNH2KU10cEgDciRnlg
8tkLRiTCrVM7LT5jjgZX0K/Wh9MXtdMAR2sEXQbWpR8en9IhKyhECn8el1d2XhT/
DjOMsunr8ocg8YaoVb5T/lDz6S87/CpKx+HtT22a4PqC1kVMHd+YLyAYjuLg+4h8
1nva3pt9P2zPmTs9X4kkPU/t4P7vtdRekFHvQmhqFHVgC/JLejcND/eRq17Vg1oc
s8PgBQYnirzSve2USlgyzin8UjlS/ZiT4Amkwtyt/94g+zRFAp/fdEZiQeCxkujt
3qx/zKnX6xKfAgMBAAGjgdUwgdIwHQYDVR0OBBYEFBl/T+OpwIjrE44GQqigtVv9
m5ZDMB8GA1UdIwQYMBaAFCQE5o88IyDywKDckLWKMLFu4uSfMAkGA1UdEwQCMAAw
CwYDVR0PBAQDAgWgMHgGA1UdHwRxMG8wbaBroGmGZ2h0dHBzOi8vZ2l0aHViLmNv
bS9yYWJpc2Fua2Fyc2FodS1va3RhL2NybC9yYXcvbWFzdGVyL3Rlc3QteDUwOS1h
dXRoLWlkcC10d28tbGV2ZWwtaW50ZXJtZWRpYXRlLWNhMi5jcmwwDQYJKoZIhvcN
AQELBQADggIBAK7sFCbSDWcgy3Ut4SzNK8HkX6xJza6I5LdrATwuaSwadtSLYjxf
pLk3hTaUDKucBlKnvvzHZfzMpW/eJtsIh/se1wQjwJAM2ZhmDLplqFTObXa5kEL4
T8LFhBEony3xtfa7FSEa9hRCtK1BxQzbDq8yC6cdHAFDCf4JkA/Y5Jz5aAkQ7wtM
AG82wmFfm8gnp2Jl/L1rsTDFAMtEMTf5w2sOM6ns3UiZ+iPUCZeJeup4V57KFKhW
i8AOQJpIezGCYdUA4/E+3kqHhCv5aa5jLfo9o0DW4JFcB4fINGYBKzg8HGQyDVxG
5ubMxt4kwsNUEm7m7sbt/sMh3LI0SP5nNRPXQsHuN6153u14LP6vfrbFdw32jl94
KIXGgLR4m+oxE8t1/QICri2DppmikvEt1keJbYNJlKqO/HXTtEi+D6Jfqgj+3gHV
s0mmq4U+cHsU2yRQBkWU3rC7iI8z+ZP0r9DZraAduFhDoJtFfp1ZH4wVUdRyj6uz
c87qQsU19PPGOVTwgyQ8siuKQXuDWj7jJbten9xuo2Jo93ktv8EDTmEcy86afc+E
ROH83Uhe1Vy+8Vce3eUQGnkMW+i581Z7gJD+SdDrkJhg/dFknR+Iq4X2q3wnJXsl
achest1moDmYp6rvp/M57tdoDZwvz7F42Y+GchFz2Yiw3Y3BggKofxG1
-----END CERTIFICATE-----
