Certificate:
    Data:
        Version: 3 (0x2)
        Serial Number: 7 (0x7)
    Signature Algorithm: sha256WithRSAEncryption
        Issuer: C=CA, ST=ON, L=TO, O=PIV Org, OU=PIV Org, CN=piv.org/emailAddress=ca@piv.org
        Validity
            Not Before: Aug 19 21:13:24 2020 GMT
            Not After : May 16 21:13:24 2023 GMT
        Subject: C=CA, ST=ON, L=TO, O=PIV Org, OU=PIV Org, CN=piv.org
        Subject Public Key Info:
            Public Key Algorithm: rsaEncryption
                Public-Key: (2048 bit)
                Modulus:
                    00:cd:9d:f3:ff:7f:88:a1:80:93:db:8c:25:ed:74:
                    e2:b1:aa:46:a1:d8:e8:ca:8b:0a:d2:32:e6:38:03:
                    38:bb:a7:ef:ef:6a:ca:38:30:1f:96:2b:c1:81:33:
                    f5:b4:c2:46:4f:a1:6b:e0:bd:6c:22:d1:da:9c:77:
                    9e:7a:74:3c:0b:2e:e6:5e:a5:1f:d9:35:b7:e4:c8:
                    1e:48:a4:e4:d8:82:2e:0c:dd:a8:d3:27:84:20:97:
                    ce:9f:cc:83:02:f2:a2:c3:33:92:cf:8c:7b:62:b5:
                    c8:22:b9:bc:9a:06:8e:f3:02:12:e8:3e:4a:a8:0a:
                    16:b7:48:61:e4:64:c2:4a:f1:4f:a2:d1:9a:91:72:
                    c7:93:9a:f7:a7:7d:68:63:fb:99:80:ce:3f:37:f9:
                    f0:1e:88:a9:0c:04:ec:d0:31:17:e2:0f:d1:06:7a:
                    5f:96:f2:46:12:37:5e:b9:4c:9a:4b:a4:53:14:f4:
                    78:82:f6:b0:eb:45:e3:30:3f:fc:f8:cb:47:0e:5c:
                    86:a7:d4:78:d9:e2:b6:9e:c3:07:4a:49:4d:6e:08:
                    2b:01:ed:a2:c3:72:4c:10:b8:c1:5c:1c:b7:06:39:
                    34:68:15:84:a0:aa:88:4c:fe:89:6a:23:d2:3a:48:
                    e5:72:06:40:44:5a:5e:31:9c:02:ea:24:53:94:90:
                    90:39
                Exponent: 65537 (0x10001)
        X509v3 extensions:
            X509v3 Subject Key Identifier: 
                F8:D4:71:4C:CF:14:0F:C6:DB:2D:6D:BB:A8:E2:DE:BD:02:1C:F1:BC
            X509v3 Authority Key Identifier: 
                keyid:2F:CF:21:FB:D9:76:CF:AF:00:7F:3D:F9:6D:62:EA:F4:24:01:7C:3E

            X509v3 Basic Constraints: 
                CA:FALSE
            X509v3 Key Usage: 
                Digital Signature, Key Encipherment
            X509v3 CRL Distribution Points: 

                Full Name:
                  URI:https://github.com/valberbenetz-okta/sample-certificates/raw/master/ca/ca.crl

    Signature Algorithm: sha256WithRSAEncryption
         16:28:85:9f:df:5b:89:29:10:77:a8:b1:37:ec:8f:50:7a:f1:
         89:4c:73:5d:83:77:32:76:8e:04:e2:79:d6:26:10:ba:aa:9c:
         39:d7:bb:4b:57:f0:fc:d2:89:e5:29:ec:64:4c:63:b6:34:3d:
         df:d1:d5:b0:35:e9:a5:c9:72:c3:1e:ad:53:eb:15:58:82:ce:
         8f:7f:d2:6a:1b:80:dd:0e:ec:ea:a9:aa:84:de:f8:62:f8:04:
         b9:86:5c:a4:32:d5:09:06:b7:fc:10:3b:bb:90:36:ea:bf:89:
         2e:f1:55:99:6b:ab:43:6b:c9:ce:eb:61:20:8c:ae:e0:3e:ab:
         b2:d3:d3:87:f5:01:55:56:53:5f:28:8b:8a:ea:64:d6:fd:0d:
         99:cc:bf:58:77:ad:c3:ce:11:a6:22:04:96:56:62:42:64:22:
         08:68:14:fb:81:7b:8b:67:ac:3e:45:76:c2:65:95:44:ac:46:
         bf:59:e6:2e:ef:e2:88:95:18:e2:a5:5b:eb:82:1e:52:0b:4c:
         68:ab:81:10:ee:ed:2e:f1:a1:a6:9f:51:f8:46:d9:9f:30:1b:
         2b:ba:da:91:fa:6d:82:b0:82:20:b4:06:98:63:f6:11:19:b0:
         93:c0:5b:85:bf:d2:a9:1f:fe:7b:c4:94:7a:d6:e1:b3:09:e2:
         92:99:33:5d:5a:d7:3f:81:d9:1d:d7:5c:b8:17:da:20:6d:0c:
         9d:92:f7:1f:57:7c:d0:9f:6c:09:d5:26:18:58:a5:22:57:9b:
         89:e2:70:75:ee:1f:b3:0a:07:23:18:62:f5:9b:cc:99:59:d6:
         e7:ae:93:f1:3c:5b:95:67:9a:2d:9d:58:a0:56:15:97:16:9e:
         f9:8f:c4:b3:7f:e6:1a:d0:e8:fe:6c:c6:c4:2f:90:cc:a3:3e:
         9d:d5:ee:14:f5:64:db:72:78:ac:69:10:86:09:16:7b:0b:25:
         8b:d2:60:aa:da:e9:c9:d4:46:7e:c5:f0:f1:9b:70:e1:e4:cc:
         95:7e:60:c2:ab:bd:3f:d3:f3:36:b9:79:98:dd:0e:62:3d:35:
         5b:2f:15:1d:0e:a2:ae:41:6f:d7:55:e6:99:0f:f5:26:0d:8a:
         34:8f:24:5c:ac:38:ab:84:1a:87:1e:67:d9:71:ca:4b:4d:67:
         c4:2b:6c:82:59:e6:28:2c:53:e4:f1:63:a9:d9:a0:87:b8:63:
         45:0d:d4:0c:6b:0d:9b:85:58:28:6b:01:9f:a1:34:89:e1:4f:
         89:fe:36:bb:fa:1f:c6:c1:60:19:bf:2b:65:3b:ab:cf:bc:32:
         d6:8b:f6:78:f2:24:e3:bf:16:38:3d:19:8e:a1:62:fe:31:bb:
         28:5e:ce:c8:30:ce:04:ee
-----BEGIN CERTIFICATE-----
MIIFDDCCAvSgAwIBAgIBBzANBgkqhkiG9w0BAQsFADB4MQswCQYDVQQGEwJDQTEL
MAkGA1UECAwCT04xCzAJBgNVBAcMAlRPMRAwDgYDVQQKDAdQSVYgT3JnMRAwDgYD
VQQLDAdQSVYgT3JnMRAwDgYDVQQDDAdwaXYub3JnMRkwFwYJKoZIhvcNAQkBFgpj
YUBwaXYub3JnMB4XDTIwMDgxOTIxMTMyNFoXDTIzMDUxNjIxMTMyNFowXTELMAkG
A1UEBhMCQ0ExCzAJBgNVBAgMAk9OMQswCQYDVQQHDAJUTzEQMA4GA1UECgwHUElW
IE9yZzEQMA4GA1UECwwHUElWIE9yZzEQMA4GA1UEAwwHcGl2Lm9yZzCCASIwDQYJ
KoZIhvcNAQEBBQADggEPADCCAQoCggEBAM2d8/9/iKGAk9uMJe104rGqRqHY6MqL
CtIy5jgDOLun7+9qyjgwH5YrwYEz9bTCRk+ha+C9bCLR2px3nnp0PAsu5l6lH9k1
t+TIHkik5NiCLgzdqNMnhCCXzp/MgwLyosMzks+Me2K1yCK5vJoGjvMCEug+SqgK
FrdIYeRkwkrxT6LRmpFyx5Oa96d9aGP7mYDOPzf58B6IqQwE7NAxF+IP0QZ6X5by
RhI3XrlMmkukUxT0eIL2sOtF4zA//PjLRw5chqfUeNnitp7DB0pJTW4IKwHtosNy
TBC4wVwctwY5NGgVhKCqiEz+iWoj0jpI5XIGQERaXjGcAuokU5SQkDkCAwEAAaOB
uzCBuDAdBgNVHQ4EFgQU+NRxTM8UD8bbLW27qOLevQIc8bwwHwYDVR0jBBgwFoAU
L88h+9l2z68Afz35bWLq9CQBfD4wCQYDVR0TBAIwADALBgNVHQ8EBAMCBaAwXgYD
VR0fBFcwVTBToFGgT4ZNaHR0cHM6Ly9naXRodWIuY29tL3ZhbGJlcmJlbmV0ei1v
a3RhL3NhbXBsZS1jZXJ0aWZpY2F0ZXMvcmF3L21hc3Rlci9jYS9jYS5jcmwwDQYJ
KoZIhvcNAQELBQADggIBABYohZ/fW4kpEHeosTfsj1B68YlMc12DdzJ2jgTiedYm
ELqqnDnXu0tX8PzSieUp7GRMY7Y0Pd/R1bA16aXJcsMerVPrFViCzo9/0mobgN0O
7OqpqoTe+GL4BLmGXKQy1QkGt/wQO7uQNuq/iS7xVZlrq0Nryc7rYSCMruA+q7LT
04f1AVVWU18oi4rqZNb9DZnMv1h3rcPOEaYiBJZWYkJkIghoFPuBe4tnrD5FdsJl
lUSsRr9Z5i7v4oiVGOKlW+uCHlILTGirgRDu7S7xoaafUfhG2Z8wGyu62pH6bYKw
giC0Bphj9hEZsJPAW4W/0qkf/nvElHrW4bMJ4pKZM11a1z+B2R3XXLgX2iBtDJ2S
9x9XfNCfbAnVJhhYpSJXm4nicHXuH7MKByMYYvWbzJlZ1ueuk/E8W5Vnmi2dWKBW
FZcWnvmPxLN/5hrQ6P5sxsQvkMyjPp3V7hT1ZNtyeKxpEIYJFnsLJYvSYKra6cnU
Rn7F8PGbcOHkzJV+YMKrvT/T8za5eZjdDmI9NVsvFR0Ooq5Bb9dV5pkP9SYNijSP
JFysOKuEGoceZ9lxyktNZ8QrbIJZ5igsU+TxY6nZoIe4Y0UN1AxrDZuFWChrAZ+h
NInhT4n+Nrv6H8bBYBm/K2U7q8+8MtaL9njyJOO/Fjg9GY6hYv4xuyhezsgwzgTu
-----END CERTIFICATE-----
