Certificate:
    Data:
        Version: 3 (0x2)
        Serial Number: 8 (0x8)
    Signature Algorithm: sha256WithRSAEncryption
        Issuer: C=CA, ST=ON, L=TO, O=PIV Org, OU=PIV Org, CN=ca.piv.org/emailAddress=ca@piv.org
        Validity
            Not Before: Aug 19 22:14:40 2020 GMT
            Not After : May 16 22:14:40 2023 GMT
        Subject: C=CA, ST=ON, L=TO, O=PIV Org, OU=PIV Org, CN=ca-int.piv.org
        Subject Public Key Info:
            Public Key Algorithm: rsaEncryption
                Public-Key: (4096 bit)
                Modulus:
                    00:d5:da:78:c3:7d:13:1c:45:fe:c9:46:e8:de:5d:
                    6a:b1:4e:25:c3:92:17:5f:17:23:35:ec:56:b9:18:
                    c1:1c:1c:ed:56:e3:67:62:1b:74:68:cb:6b:f9:62:
                    3b:fd:a8:f8:f1:50:d4:a1:ad:09:e9:ea:24:42:f3:
                    38:f5:52:96:a4:4c:d9:7c:ad:8b:78:40:55:7d:f0:
                    de:3e:1a:a6:b9:d4:a1:67:1d:42:9c:be:40:cd:35:
                    c4:74:9a:da:c8:f2:15:2b:7d:49:04:68:15:5f:12:
                    29:c5:7c:8b:b4:9d:51:ba:ec:12:c0:f5:5c:b1:f1:
                    3f:39:6c:86:e2:3e:fd:76:90:58:e5:f4:3e:32:0e:
                    e1:a2:04:f5:f6:47:08:69:52:c7:7e:21:32:68:66:
                    e0:05:b5:3b:79:45:71:01:d6:57:69:ac:5f:6a:27:
                    57:6a:27:0c:be:cd:77:1a:bd:66:b5:ff:c9:92:31:
                    f9:50:8c:c4:09:bc:fe:46:5a:9b:36:ae:c7:79:3f:
                    8f:04:6d:63:b8:7b:59:20:ad:27:88:1a:9a:25:e6:
                    e4:48:f5:8c:24:d9:f6:85:a5:d6:2a:f1:b4:6a:a3:
                    94:2c:3f:33:88:3d:6c:0e:f4:a4:cf:df:e0:da:f4:
                    4e:3a:23:48:94:44:8b:75:f3:73:f6:8e:55:22:7d:
                    a6:fc:73:f3:4f:4a:6b:01:2e:dc:6c:3f:65:fa:46:
                    26:3a:5f:17:5e:fb:2a:fe:90:83:b7:97:25:20:8b:
                    a1:46:fe:d0:8a:17:44:09:b1:c7:c0:7a:86:40:8d:
                    98:53:17:c8:e7:7a:3b:96:eb:27:d2:3d:81:d6:94:
                    ea:22:7a:89:30:32:46:23:49:0a:05:5e:02:85:09:
                    9e:5b:02:e1:96:79:e5:6e:3f:78:de:2c:a0:ab:64:
                    5e:0a:3f:f4:6f:1d:0e:43:6e:75:9a:ed:80:42:9c:
                    ba:38:74:fa:83:ee:f1:35:bc:4e:0c:29:52:5e:ed:
                    5e:e9:2c:dc:a8:f2:a9:58:f1:74:a5:e1:44:ff:9a:
                    f7:af:fe:a1:e8:b0:0a:8e:d5:5d:99:1c:6c:21:9e:
                    0e:a2:ab:5d:ca:11:ab:4e:78:e6:86:61:a0:9b:95:
                    f1:52:3d:1b:62:84:5b:38:34:70:8d:22:b4:08:70:
                    02:3b:bc:0a:32:df:65:0c:cf:d4:20:c7:46:2a:07:
                    1d:ec:a2:9c:d7:b7:d1:09:51:d4:e3:b3:cd:d4:25:
                    88:2d:3e:04:6b:c3:d0:00:6d:60:c6:0b:ad:a6:c3:
                    68:75:f4:e2:0f:12:bd:57:18:60:a5:de:11:d1:65:
                    bf:bd:a0:42:10:1f:8c:53:f8:8f:3f:4a:44:79:c1:
                    2d:a6:47
                Exponent: 65537 (0x10001)
        X509v3 extensions:
            X509v3 Subject Key Identifier: 
                4A:14:B1:AA:AE:22:3D:BC:95:37:15:FF:CE:78:02:BC:CA:00:F9:46
            X509v3 Authority Key Identifier: 
                keyid:1E:D5:8B:EE:D9:46:18:12:9D:2A:6A:B2:10:58:95:8E:CF:3F:E8:C5

            X509v3 Basic Constraints: 
                CA:FALSE
            X509v3 Key Usage: 
                Digital Signature, Key Encipherment
            X509v3 CRL Distribution Points: 

                Full Name:
                  URI:https://github.com/valberbenetz-okta/sample-certificates/raw/master/ca/ca.crl

    Signature Algorithm: sha256WithRSAEncryption
         46:0a:bd:b5:d0:d5:6b:a5:32:fc:38:d6:aa:17:d9:6b:f9:23:
         c8:97:8b:89:92:eb:6e:f8:b1:ef:bb:ec:3c:a4:e0:94:78:fe:
         a6:29:38:8e:07:ac:49:f3:b3:05:1d:ed:d8:dd:ad:6c:de:fc:
         ff:b4:d5:eb:e0:1c:c6:07:07:05:b4:0b:05:bf:41:2f:54:c6:
         7e:41:26:09:94:ac:5c:1e:a1:22:a6:c6:5c:01:93:73:e5:72:
         ef:53:cf:bc:e6:aa:96:bc:09:72:f3:cf:79:f5:1e:14:fd:ae:
         e6:15:56:74:78:c7:2f:07:b1:1e:58:bb:15:51:0c:53:db:a1:
         7c:3d:1f:93:5f:d1:70:a9:19:88:a0:a7:f4:f0:40:73:c4:bd:
         99:d6:3b:52:16:c0:f6:8a:ea:a3:c7:13:51:ec:e4:6f:e0:4f:
         38:63:76:b8:68:ea:f3:1d:fe:ed:e1:c2:da:42:9f:98:eb:b2:
         1d:0e:61:63:72:dd:82:9a:af:2a:45:4b:ee:70:06:c2:51:2f:
         7b:a3:de:a3:6d:12:6a:a1:00:5f:08:3e:b7:09:25:21:d6:84:
         de:8a:8b:01:51:af:c2:73:36:92:26:6e:4a:01:43:39:e0:50:
         9c:5b:1e:68:94:0a:1f:b3:eb:db:7c:99:3d:9e:b3:ca:a3:8a:
         81:1c:97:22:26:7c:3b:99:5e:4b:a4:0a:47:47:8c:19:16:4b:
         25:39:e7:c6:8b:3c:ad:9c:51:28:86:ca:de:a3:13:c8:04:ae:
         fe:da:83:48:34:8c:de:16:8d:b3:a3:34:92:bb:b9:f6:64:68:
         3b:90:27:4c:a6:d6:ed:90:5b:da:a8:33:3a:07:34:96:48:8a:
         63:86:75:5a:bf:0c:59:97:d3:b9:76:e8:fd:fa:43:54:fc:c5:
         ac:6b:b2:39:06:4e:09:42:78:e0:6c:30:93:80:40:06:cc:ee:
         0f:ae:f7:39:79:38:41:e5:0f:f2:46:bb:59:a4:62:07:46:93:
         34:1b:bd:1d:4c:aa:95:d1:70:79:dd:26:c6:fd:12:fc:62:a7:
         1d:a2:a3:0c:bb:ca:15:67:d8:ff:48:48:da:f7:b8:1f:29:0b:
         a6:58:d1:ed:eb:91:da:a2:90:80:b1:6c:b4:0f:c6:05:0d:5d:
         30:7e:3e:ed:84:58:b9:45:52:ad:06:82:94:65:a2:56:68:8c:
         a3:2d:6a:6f:58:e9:aa:a5:97:80:1d:0c:d1:0c:88:1e:8c:8f:
         4b:a3:75:e6:d3:ef:ea:52:0c:a6:16:f8:0a:5f:4c:7c:54:47:
         bf:fd:39:fb:92:70:6d:bb:ee:d5:2c:f3:a5:e2:76:c1:74:53:
         72:ec:ef:63:c6:b8:c7:de
-----BEGIN CERTIFICATE-----
MIIGFjCCA/6gAwIBAgIBCDANBgkqhkiG9w0BAQsFADB7MQswCQYDVQQGEwJDQTEL
MAkGA1UECAwCT04xCzAJBgNVBAcMAlRPMRAwDgYDVQQKDAdQSVYgT3JnMRAwDgYD
VQQLDAdQSVYgT3JnMRMwEQYDVQQDDApjYS5waXYub3JnMRkwFwYJKoZIhvcNAQkB
FgpjYUBwaXYub3JnMB4XDTIwMDgxOTIyMTQ0MFoXDTIzMDUxNjIyMTQ0MFowZDEL
MAkGA1UEBhMCQ0ExCzAJBgNVBAgMAk9OMQswCQYDVQQHDAJUTzEQMA4GA1UECgwH
UElWIE9yZzEQMA4GA1UECwwHUElWIE9yZzEXMBUGA1UEAwwOY2EtaW50LnBpdi5v
cmcwggIiMA0GCSqGSIb3DQEBAQUAA4ICDwAwggIKAoICAQDV2njDfRMcRf7JRuje
XWqxTiXDkhdfFyM17Fa5GMEcHO1W42diG3Roy2v5Yjv9qPjxUNShrQnp6iRC8zj1
UpakTNl8rYt4QFV98N4+Gqa51KFnHUKcvkDNNcR0mtrI8hUrfUkEaBVfEinFfIu0
nVG67BLA9Vyx8T85bIbiPv12kFjl9D4yDuGiBPX2RwhpUsd+ITJoZuAFtTt5RXEB
1ldprF9qJ1dqJwy+zXcavWa1/8mSMflQjMQJvP5GWps2rsd5P48EbWO4e1kgrSeI
Gpol5uRI9Ywk2faFpdYq8bRqo5QsPzOIPWwO9KTP3+Da9E46I0iURIt183P2jlUi
fab8c/NPSmsBLtxsP2X6RiY6Xxde+yr+kIO3lyUgi6FG/tCKF0QJscfAeoZAjZhT
F8jnejuW6yfSPYHWlOoieokwMkYjSQoFXgKFCZ5bAuGWeeVuP3jeLKCrZF4KP/Rv
HQ5DbnWa7YBCnLo4dPqD7vE1vE4MKVJe7V7pLNyo8qlY8XSl4UT/mvev/qHosAqO
1V2ZHGwhng6iq13KEatOeOaGYaCblfFSPRtihFs4NHCNIrQIcAI7vAoy32UMz9Qg
x0YqBx3sopzXt9EJUdTjs83UJYgtPgRrw9AAbWDGC62mw2h19OIPEr1XGGCl3hHR
Zb+9oEIQH4xT+I8/SkR5wS2mRwIDAQABo4G7MIG4MB0GA1UdDgQWBBRKFLGqriI9
vJU3Ff/OeAK8ygD5RjAfBgNVHSMEGDAWgBQe1Yvu2UYYEp0qarIQWJWOzz/oxTAJ
BgNVHRMEAjAAMAsGA1UdDwQEAwIFoDBeBgNVHR8EVzBVMFOgUaBPhk1odHRwczov
L2dpdGh1Yi5jb20vdmFsYmVyYmVuZXR6LW9rdGEvc2FtcGxlLWNlcnRpZmljYXRl
cy9yYXcvbWFzdGVyL2NhL2NhLmNybDANBgkqhkiG9w0BAQsFAAOCAgEARgq9tdDV
a6Uy/DjWqhfZa/kjyJeLiZLrbvix77vsPKTglHj+pik4jgesSfOzBR3t2N2tbN78
/7TV6+AcxgcHBbQLBb9BL1TGfkEmCZSsXB6hIqbGXAGTc+Vy71PPvOaqlrwJcvPP
efUeFP2u5hVWdHjHLwexHli7FVEMU9uhfD0fk1/RcKkZiKCn9PBAc8S9mdY7UhbA
9orqo8cTUezkb+BPOGN2uGjq8x3+7eHC2kKfmOuyHQ5hY3LdgpqvKkVL7nAGwlEv
e6Peo20SaqEAXwg+twklIdaE3oqLAVGvwnM2kiZuSgFDOeBQnFseaJQKH7Pr23yZ
PZ6zyqOKgRyXIiZ8O5leS6QKR0eMGRZLJTnnxos8rZxRKIbK3qMTyASu/tqDSDSM
3haNs6M0kru59mRoO5AnTKbW7ZBb2qgzOgc0lkiKY4Z1Wr8MWZfTuXbo/fpDVPzF
rGuyOQZOCUJ44Gwwk4BABszuD673OXk4QeUP8ka7WaRiB0aTNBu9HUyqldFwed0m
xv0S/GKnHaKjDLvKFWfY/0hI2ve4HykLpljR7euR2qKQgLFstA/GBQ1dMH4+7YRY
uUVSrQaClGWiVmiMoy1qb1jpqqWXgB0M0QyIHoyPS6N15tPv6lIMphb4Cl9MfFRH
v/05+5Jwbbvu1SzzpeJ2wXRTcuzvY8a4x94=
-----END CERTIFICATE-----
