Certificate:
    Data:
        Version: 3 (0x2)
        Serial Number: 9 (0x9)
    Signature Algorithm: sha256WithRSAEncryption
        Issuer: C=CA, ST=ON, L=TO, O=PIV Org, OU=PIV Org, CN=ca.piv.org/emailAddress=ca@piv.org
        Validity
            Not Before: Aug 20 15:36:24 2020 GMT
            Not After : May 17 15:36:24 2023 GMT
        Subject: C=CA, ST=ON, L=TO, O=PIV Org, OU=PIV Org, CN=ca-int.piv.org
        Subject Public Key Info:
            Public Key Algorithm: rsaEncryption
                Public-Key: (2048 bit)
                Modulus:
                    00:b9:eb:87:fd:3c:ee:f2:24:02:e6:13:bc:92:cc:
                    5a:49:b8:5d:f3:59:b1:52:b6:84:11:cb:64:f2:a6:
                    58:2e:e0:72:3d:44:6f:fe:1c:1b:60:c7:97:72:3f:
                    01:79:75:9d:32:15:44:e7:da:d9:f9:9e:63:f4:d5:
                    a9:4a:23:38:d2:9a:95:39:39:c4:ba:61:b2:af:a3:
                    13:cb:05:b1:9b:1e:ae:26:67:65:f2:a6:2f:0c:f6:
                    b6:a6:17:f2:c3:a6:da:a6:7c:db:0f:4c:61:da:94:
                    bb:67:ca:62:d0:fa:12:11:96:a3:83:e0:73:36:10:
                    f5:38:8e:c7:0d:18:01:35:26:17:29:92:b7:e7:2a:
                    62:94:69:4e:a3:7d:0b:33:a9:86:57:01:b3:68:17:
                    28:5c:30:70:3a:74:6d:eb:14:f8:3f:49:67:ff:9b:
                    a9:4f:be:59:a1:14:4f:06:b1:17:62:25:3b:50:d6:
                    51:4c:d0:ca:f5:06:e0:04:be:b0:8c:ae:2d:df:fa:
                    7c:d0:5f:5d:c3:19:74:19:d0:5a:59:ad:82:c2:d9:
                    54:cd:ed:d7:3a:93:35:d2:1b:c3:58:c4:47:6f:6b:
                    db:63:10:4c:44:88:28:45:d6:88:18:25:1e:ce:b8:
                    23:e9:03:ca:4a:d0:e2:1e:b8:f0:89:f8:be:7b:2b:
                    fa:2b
                Exponent: 65537 (0x10001)
        X509v3 extensions:
            X509v3 Subject Key Identifier: 
                91:03:90:94:06:C1:C5:83:58:8C:71:2F:B7:51:E3:4C:4B:A0:1D:B0
            X509v3 Authority Key Identifier: 
                keyid:1E:D5:8B:EE:D9:46:18:12:9D:2A:6A:B2:10:58:95:8E:CF:3F:E8:C5

            X509v3 Basic Constraints: 
                CA:FALSE
            X509v3 Key Usage: 
                Digital Signature, Key Encipherment
            X509v3 CRL Distribution Points: 

                Full Name:
                  URI:https://github.com/valberbenetz-okta/sample-certificates/raw/master/ca/ca.crl

    Signature Algorithm: sha256WithRSAEncryption
         6f:09:e5:d2:38:60:0d:17:3d:9b:bf:b5:57:98:6b:b5:75:77:
         12:99:b9:01:d1:11:ea:84:4f:76:db:80:63:d5:2a:93:8f:32:
         cd:0e:4a:95:35:17:22:b3:7a:99:04:eb:8d:02:89:9b:28:ef:
         11:b8:bc:5a:98:b1:5d:46:a0:da:2e:9c:2a:6a:1a:11:a5:06:
         90:b9:0a:7d:dd:93:5f:5b:25:47:3f:45:c0:5d:40:72:d6:45:
         9e:98:67:c2:f0:36:44:b2:7a:7e:34:90:67:80:51:e6:f0:2b:
         19:51:f4:2e:e5:3a:75:28:2e:1b:a7:23:6c:6e:94:3d:3f:2e:
         f8:bb:fe:33:b3:2e:f3:46:fc:81:e4:29:32:53:d6:cd:27:78:
         40:94:a9:d3:6a:1d:c7:59:88:15:02:ab:01:be:0c:7c:77:69:
         8b:bb:0f:6e:37:e0:13:4b:5a:d4:be:ef:17:d9:cf:0a:31:a7:
         5a:d8:80:8b:3e:52:15:9c:d2:85:d6:24:7d:78:d2:24:3b:ec:
         a6:76:a0:cc:5a:21:e2:06:1b:bc:6c:5c:4e:0b:90:45:3f:f7:
         ff:5c:b5:42:f4:66:c6:fc:77:a1:c3:61:37:94:08:0d:b9:f2:
         cb:0a:d2:ae:74:c4:90:0d:6c:cd:bc:7c:98:fe:bd:6c:24:46:
         dd:b1:af:1e:30:17:34:45:fc:c8:b5:57:44:aa:b0:98:17:22:
         1e:a7:3b:59:ad:06:1f:b9:a0:0d:37:12:3f:d2:ce:e7:66:9c:
         e8:7f:d1:30:e8:a8:13:a0:11:35:e6:18:69:db:5a:ad:50:d1:
         f1:ec:2b:ef:94:5f:ba:13:57:81:a9:6b:c2:58:5c:8d:d7:10:
         16:37:14:e8:4d:c9:29:8d:4e:5b:07:8f:12:a2:2e:57:7c:32:
         a3:07:b5:fe:88:1b:0b:ac:ad:94:58:62:62:05:f6:ad:06:5b:
         f1:a0:4d:91:ff:41:a1:47:2f:72:b1:c4:76:10:2c:1f:67:88:
         f4:80:ec:96:d2:e9:51:3b:e7:25:cc:7c:3a:a9:da:8b:d1:d4:
         d9:2e:76:76:f7:dc:44:28:e8:1d:37:dc:cf:bf:c4:35:8c:f5:
         18:cb:aa:69:66:d7:cd:a3:49:3d:bd:23:bb:63:4b:94:f2:2e:
         a0:d8:12:0d:22:c3:6c:c6:bc:20:5f:7b:ec:76:7a:22:6a:2e:
         0f:cd:43:db:30:60:3b:e7:b0:1c:07:c5:c4:36:19:ec:d0:c9:
         55:f9:01:3d:1e:49:6f:32:8b:4e:9c:a9:d3:38:a7:4f:08:83:
         bb:3c:38:51:b0:49:cb:4f:5e:07:46:dc:0e:51:42:b4:61:2b:
         a7:5a:f8:f2:d3:f2:3a:ae
-----BEGIN CERTIFICATE-----
MIIFFjCCAv6gAwIBAgIBCTANBgkqhkiG9w0BAQsFADB7MQswCQYDVQQGEwJDQTEL
MAkGA1UECAwCT04xCzAJBgNVBAcMAlRPMRAwDgYDVQQKDAdQSVYgT3JnMRAwDgYD
VQQLDAdQSVYgT3JnMRMwEQYDVQQDDApjYS5waXYub3JnMRkwFwYJKoZIhvcNAQkB
FgpjYUBwaXYub3JnMB4XDTIwMDgyMDE1MzYyNFoXDTIzMDUxNzE1MzYyNFowZDEL
MAkGA1UEBhMCQ0ExCzAJBgNVBAgMAk9OMQswCQYDVQQHDAJUTzEQMA4GA1UECgwH
UElWIE9yZzEQMA4GA1UECwwHUElWIE9yZzEXMBUGA1UEAwwOY2EtaW50LnBpdi5v
cmcwggEiMA0GCSqGSIb3DQEBAQUAA4IBDwAwggEKAoIBAQC564f9PO7yJALmE7yS
zFpJuF3zWbFStoQRy2Typlgu4HI9RG/+HBtgx5dyPwF5dZ0yFUTn2tn5nmP01alK
IzjSmpU5OcS6YbKvoxPLBbGbHq4mZ2Xypi8M9ramF/LDptqmfNsPTGHalLtnymLQ
+hIRlqOD4HM2EPU4jscNGAE1JhcpkrfnKmKUaU6jfQszqYZXAbNoFyhcMHA6dG3r
FPg/SWf/m6lPvlmhFE8GsRdiJTtQ1lFM0Mr1BuAEvrCMri3f+nzQX13DGXQZ0FpZ
rYLC2VTN7dc6kzXSG8NYxEdva9tjEExEiChF1ogYJR7OuCPpA8pK0OIeuPCJ+L57
K/orAgMBAAGjgbswgbgwHQYDVR0OBBYEFJEDkJQGwcWDWIxxL7dR40xLoB2wMB8G
A1UdIwQYMBaAFB7Vi+7ZRhgSnSpqshBYlY7PP+jFMAkGA1UdEwQCMAAwCwYDVR0P
BAQDAgWgMF4GA1UdHwRXMFUwU6BRoE+GTWh0dHBzOi8vZ2l0aHViLmNvbS92YWxi
ZXJiZW5ldHotb2t0YS9zYW1wbGUtY2VydGlmaWNhdGVzL3Jhdy9tYXN0ZXIvY2Ev
Y2EuY3JsMA0GCSqGSIb3DQEBCwUAA4ICAQBvCeXSOGANFz2bv7VXmGu1dXcSmbkB
0RHqhE9224Bj1SqTjzLNDkqVNRcis3qZBOuNAombKO8RuLxamLFdRqDaLpwqahoR
pQaQuQp93ZNfWyVHP0XAXUBy1kWemGfC8DZEsnp+NJBngFHm8CsZUfQu5Tp1KC4b
pyNsbpQ9Py74u/4zsy7zRvyB5CkyU9bNJ3hAlKnTah3HWYgVAqsBvgx8d2mLuw9u
N+ATS1rUvu8X2c8KMada2ICLPlIVnNKF1iR9eNIkO+ymdqDMWiHiBhu8bFxOC5BF
P/f/XLVC9GbG/Hehw2E3lAgNufLLCtKudMSQDWzNvHyY/r1sJEbdsa8eMBc0RfzI
tVdEqrCYFyIepztZrQYfuaANNxI/0s7nZpzof9Ew6KgToBE15hhp21qtUNHx7Cvv
lF+6E1eBqWvCWFyN1xAWNxToTckpjU5bB48Soi5XfDKjB7X+iBsLrK2UWGJiBfat
BlvxoE2R/0GhRy9yscR2ECwfZ4j0gOyW0ulRO+clzHw6qdqL0dTZLnZ299xEKOgd
N9zPv8Q1jPUYy6ppZtfNo0k9vSO7Y0uU8i6g2BINIsNsxrwgX3vsdnoiai4PzUPb
MGA757AcB8XENhns0MlV+QE9HklvMotOnKnTOKdPCIO7PDhRsEnLT14HRtwOUUK0
YSunWvjy0/I6rg==
-----END CERTIFICATE-----
