Certificate:
    Data:
        Version: 3 (0x2)
        Serial Number: 10 (0xa)
    Signature Algorithm: sha256WithRSAEncryption
        Issuer: C=CA, ST=ON, L=TO, O=PIV Org, OU=PIV Org, CN=ca.piv.org/emailAddress=ca@piv.org
        Validity
            Not Before: Aug 20 15:38:45 2020 GMT
            Not After : May 17 15:38:45 2023 GMT
        Subject: C=CA, ST=ON, L=TO, O=PIV Org, OU=PIV Org, CN=ca-int.piv.org
        Subject Public Key Info:
            Public Key Algorithm: rsaEncryption
                Public-Key: (2048 bit)
                Modulus:
                    00:db:a7:f5:11:64:c7:f5:36:5f:7a:b5:07:e3:9c:
                    81:06:55:c0:d5:ce:72:10:43:28:2f:23:df:d0:3e:
                    67:f6:5e:99:70:84:e5:85:1e:97:0a:2d:67:10:54:
                    fb:23:26:9d:f0:fb:bc:94:7a:be:74:1f:2d:4b:4c:
                    09:3b:4c:d5:65:23:9b:68:71:ad:f1:1d:63:40:7f:
                    b3:27:4c:b4:37:6b:f2:17:ce:30:1a:92:1f:54:49:
                    92:4a:b2:4e:56:2c:ae:52:35:b6:1c:92:04:45:91:
                    54:1d:ad:19:78:ca:c5:7b:e8:25:dd:8c:58:f2:84:
                    60:80:9a:f5:31:82:3d:3d:48:0b:08:60:17:38:a9:
                    f4:4d:20:1a:46:23:f0:05:6d:06:f2:ad:9e:55:df:
                    30:c9:ea:74:56:09:87:f5:ed:31:9a:01:f7:05:0f:
                    b8:c3:7f:62:18:f5:35:e7:4d:d6:48:63:f7:26:6c:
                    53:00:6f:a0:28:f5:3e:c3:8e:9b:7c:e1:00:dc:de:
                    d5:32:32:c5:c0:9f:a1:f2:63:35:b4:63:60:26:07:
                    fb:42:ba:c5:44:4b:dd:0f:13:33:16:bd:e0:0b:9f:
                    4d:38:71:c2:f5:fa:70:c7:5a:1a:91:75:f6:ed:e3:
                    2e:3e:40:06:32:fc:a6:ac:a1:08:bc:87:e6:84:d5:
                    f1:df
                Exponent: 65537 (0x10001)
        X509v3 extensions:
            X509v3 Subject Key Identifier: 
                1F:FE:1A:4C:12:EA:6C:81:79:45:15:5A:91:4B:16:CB:FF:60:D2:7F
            X509v3 Authority Key Identifier: 
                keyid:1E:D5:8B:EE:D9:46:18:12:9D:2A:6A:B2:10:58:95:8E:CF:3F:E8:C5

            X509v3 Basic Constraints: 
                CA:FALSE
            X509v3 Key Usage: 
                Digital Signature, Key Encipherment
            X509v3 CRL Distribution Points: 

                Full Name:
                  URI:https://github.com/valberbenetz-okta/sample-certificates/raw/master/ca/ca.crl

    Signature Algorithm: sha256WithRSAEncryption
         5a:09:18:52:31:0c:35:b9:f6:8f:63:46:35:cd:8b:44:1d:89:
         26:de:8c:81:5a:ea:dd:53:73:3d:1e:94:17:cc:74:92:5b:b7:
         94:82:53:80:90:88:22:99:47:ea:81:3b:6a:3a:7c:8b:ce:d1:
         82:8c:30:20:69:5f:c8:d1:f2:b4:94:4e:04:6c:7e:27:4b:29:
         9a:ef:92:1d:36:bf:9b:98:68:34:97:7f:6a:ac:a7:a5:88:bc:
         88:56:9d:72:80:64:e9:a1:98:dc:f9:1c:b9:e1:d6:dd:87:13:
         e3:2f:43:9b:92:f8:b7:9d:f2:47:7b:c6:29:97:b7:fa:40:47:
         d0:15:e9:e5:93:a4:26:e4:02:ec:4e:32:b1:76:f5:ae:9e:0f:
         9a:ff:2c:59:b5:96:58:fc:b7:dd:28:7d:b1:19:77:08:b4:9b:
         f7:07:58:76:b7:b1:6a:b3:38:06:3e:b1:54:1a:17:60:dd:7d:
         91:ba:0e:85:7c:7d:c4:5c:9c:6b:f1:7e:61:44:e1:72:49:c0:
         e5:d9:dc:42:7b:ba:cb:fc:a3:99:87:a8:31:98:f3:1f:4b:73:
         41:96:55:27:75:df:56:b1:b5:7d:05:bf:e4:c6:69:5d:7b:f4:
         c0:7a:2c:68:3f:3a:d7:bb:bd:f4:d8:af:de:f8:61:b1:93:4f:
         e5:53:fe:f0:25:5c:49:5d:20:3f:76:80:0f:29:ac:4c:74:4c:
         46:1b:e4:3f:1f:f9:e1:67:02:a1:18:17:ad:43:be:92:a2:b6:
         24:f0:e8:85:c7:7f:14:83:54:fa:b2:7a:7c:64:ec:29:3c:b6:
         cb:6c:04:ef:18:81:61:02:f4:74:29:24:5f:d9:61:a2:30:ea:
         29:e9:d9:0f:2a:8f:a4:ae:9c:79:75:6b:68:b4:16:9d:41:09:
         21:b8:e9:6c:d2:0a:ee:a6:38:8f:aa:ce:ba:a4:a4:7d:c0:10:
         b8:f7:0a:e2:4d:33:fd:dd:66:0f:bf:1d:8a:5f:6d:17:53:e7:
         d3:d5:aa:9f:05:fa:20:5d:ac:5d:01:40:f7:bf:de:65:56:ea:
         c1:a9:01:9d:09:1a:8c:92:14:1e:80:e3:b1:55:06:af:9f:c4:
         d3:62:29:91:6a:a3:ea:3d:94:81:5c:ee:f2:6b:c1:ce:f0:aa:
         2a:62:2f:05:49:1a:44:43:73:1a:42:a8:b6:4c:c5:7f:9b:de:
         4c:11:a1:c9:59:dd:dc:4f:fd:d5:4d:39:11:69:91:7d:88:9e:
         e7:3b:ae:f8:d8:c4:31:9f:10:69:40:38:17:e0:bd:71:0b:df:
         23:97:41:17:10:19:b4:1c:1d:e4:0a:7f:c1:f8:99:6f:f2:3c:
         a7:c8:e2:71:ca:c4:d3:c9
-----BEGIN CERTIFICATE-----
MIIFFjCCAv6gAwIBAgIBCjANBgkqhkiG9w0BAQsFADB7MQswCQYDVQQGEwJDQTEL
MAkGA1UECAwCT04xCzAJBgNVBAcMAlRPMRAwDgYDVQQKDAdQSVYgT3JnMRAwDgYD
VQQLDAdQSVYgT3JnMRMwEQYDVQQDDApjYS5waXYub3JnMRkwFwYJKoZIhvcNAQkB
FgpjYUBwaXYub3JnMB4XDTIwMDgyMDE1Mzg0NVoXDTIzMDUxNzE1Mzg0NVowZDEL
MAkGA1UEBhMCQ0ExCzAJBgNVBAgMAk9OMQswCQYDVQQHDAJUTzEQMA4GA1UECgwH
UElWIE9yZzEQMA4GA1UECwwHUElWIE9yZzEXMBUGA1UEAwwOY2EtaW50LnBpdi5v
cmcwggEiMA0GCSqGSIb3DQEBAQUAA4IBDwAwggEKAoIBAQDbp/URZMf1Nl96tQfj
nIEGVcDVznIQQygvI9/QPmf2XplwhOWFHpcKLWcQVPsjJp3w+7yUer50Hy1LTAk7
TNVlI5toca3xHWNAf7MnTLQ3a/IXzjAakh9USZJKsk5WLK5SNbYckgRFkVQdrRl4
ysV76CXdjFjyhGCAmvUxgj09SAsIYBc4qfRNIBpGI/AFbQbyrZ5V3zDJ6nRWCYf1
7TGaAfcFD7jDf2IY9TXnTdZIY/cmbFMAb6Ao9T7Djpt84QDc3tUyMsXAn6HyYzW0
Y2AmB/tCusVES90PEzMWveALn004ccL1+nDHWhqRdfbt4y4+QAYy/KasoQi8h+aE
1fHfAgMBAAGjgbswgbgwHQYDVR0OBBYEFB/+GkwS6myBeUUVWpFLFsv/YNJ/MB8G
A1UdIwQYMBaAFB7Vi+7ZRhgSnSpqshBYlY7PP+jFMAkGA1UdEwQCMAAwCwYDVR0P
BAQDAgWgMF4GA1UdHwRXMFUwU6BRoE+GTWh0dHBzOi8vZ2l0aHViLmNvbS92YWxi
ZXJiZW5ldHotb2t0YS9zYW1wbGUtY2VydGlmaWNhdGVzL3Jhdy9tYXN0ZXIvY2Ev
Y2EuY3JsMA0GCSqGSIb3DQEBCwUAA4ICAQBaCRhSMQw1ufaPY0Y1zYtEHYkm3oyB
WurdU3M9HpQXzHSSW7eUglOAkIgimUfqgTtqOnyLztGCjDAgaV/I0fK0lE4EbH4n
Syma75IdNr+bmGg0l39qrKeliLyIVp1ygGTpoZjc+Ry54dbdhxPjL0Obkvi3nfJH
e8Ypl7f6QEfQFenlk6Qm5ALsTjKxdvWung+a/yxZtZZY/LfdKH2xGXcItJv3B1h2
t7FqszgGPrFUGhdg3X2Rug6FfH3EXJxr8X5hROFyScDl2dxCe7rL/KOZh6gxmPMf
S3NBllUndd9WsbV9Bb/kxmlde/TAeixoPzrXu7302K/e+GGxk0/lU/7wJVxJXSA/
doAPKaxMdExGG+Q/H/nhZwKhGBetQ76SorYk8OiFx38Ug1T6snp8ZOwpPLbLbATv
GIFhAvR0KSRf2WGiMOop6dkPKo+krpx5dWtotBadQQkhuOls0grupjiPqs66pKR9
wBC49wriTTP93WYPvx2KX20XU+fT1aqfBfogXaxdAUD3v95lVurBqQGdCRqMkhQe
gOOxVQavn8TTYimRaqPqPZSBXO7ya8HO8KoqYi8FSRpEQ3MaQqi2TMV/m95MEaHJ
Wd3cT/3VTTkRaZF9iJ7nO6742MQxnxBpQDgX4L1xC98jl0EXEBm0HB3kCn/B+Jlv
8jynyOJxysTTyQ==
-----END CERTIFICATE-----
