Certificate:
    Data:
        Version: 3 (0x2)
        Serial Number: 97 (0x61)
    Signature Algorithm: sha256WithRSAEncryption
        Issuer: C=CA, ST=ON, L=TO, O=PIV Org, OU=PIV Org, CN=piv.org
        Validity
            Not Before: Apr 15 21:02:32 2020 GMT
            Not After : Jan 10 21:02:32 2023 GMT
        Subject: C=CA, ST=ON, L=TO, O=PIV Org, CN=PIV Org
        Subject Public Key Info:
            Public Key Algorithm: rsaEncryption
                Public-Key: (2048 bit)
                Modulus:
                    00:d7:db:6c:c3:a5:dc:65:c0:bf:7a:9b:60:cc:8c:
                    ac:15:29:ea:b1:e6:d4:b6:22:19:77:75:5c:72:90:
                    57:d7:f1:e1:b3:4c:2d:46:a3:5f:55:02:4a:c3:b5:
                    50:cf:6f:61:c0:bc:a4:b1:95:c0:2e:cc:20:3a:bf:
                    f1:ad:25:d9:04:f8:6c:d8:3d:83:71:21:53:15:29:
                    30:e8:53:ce:b5:19:8d:52:71:50:ca:5a:fb:e4:da:
                    6c:65:2d:35:b3:bd:3e:be:3e:93:19:92:0c:12:46:
                    6c:73:54:81:23:ce:e1:9f:12:e9:a0:97:c7:c8:6f:
                    1a:54:98:8e:04:4a:1c:5a:25:88:97:d8:93:d8:e4:
                    f6:27:ad:7c:60:8d:0b:24:20:ae:4c:20:ad:1f:4e:
                    36:95:76:38:99:25:1c:b0:dd:9d:f1:0d:59:6e:85:
                    52:e0:23:6b:9e:1f:d7:c7:34:cb:93:9c:97:97:9b:
                    12:af:45:9a:e3:3e:1f:a0:db:db:d4:1d:aa:a0:9b:
                    04:9f:14:1e:fd:7f:d7:22:96:f7:78:8e:c1:3e:fd:
                    fe:65:4b:56:92:cb:5d:0f:ed:22:8f:1e:c7:4d:65:
                    b7:ae:90:6d:2c:a4:60:02:52:4e:72:1e:f2:4e:54:
                    38:2f:3e:fa:7b:9b:39:3b:28:bb:73:4d:69:85:c8:
                    ae:e1
                Exponent: 65537 (0x10001)
        X509v3 extensions:
            X509v3 Subject Key Identifier: 
                3B:2A:78:A9:C8:1F:C0:19:D1:CD:9E:04:1E:09:40:E3:84:42:B1:85
            X509v3 Authority Key Identifier: 
                keyid:05:C8:8F:F6:8E:ED:35:07:0F:99:9F:E7:E1:DD:0E:89:5C:58:18:D0

            X509v3 Basic Constraints: 
                CA:FALSE
            X509v3 Key Usage: 
                Digital Signature, Key Encipherment
            X509v3 Subject Alternative Name: 
                DNS:piv.org, DNS:www.piv.org, DNS:piv.okta1.com, DNS:www.piv.okta1.com
            Netscape Comment: 
                OpenSSL Generated Certificate
    Signature Algorithm: sha256WithRSAEncryption
         68:26:29:ab:2c:00:75:f3:da:a1:0f:fe:45:bf:b8:80:02:66:
         bd:89:0d:f6:47:5e:42:6e:9a:d0:5d:16:90:8c:33:b9:c7:f0:
         13:67:4a:76:d5:c3:1a:b2:a5:69:3c:e1:7e:1e:71:06:83:b6:
         a9:04:ac:33:55:85:55:55:fc:b0:23:ec:da:56:08:25:ee:6c:
         72:59:8f:92:c0:38:6c:42:64:08:d1:52:8b:4f:cb:b0:3c:7c:
         8b:06:79:c4:ca:2c:17:73:39:1e:62:b9:87:ec:d5:11:1f:53:
         ab:e9:91:d2:4b:05:35:35:70:00:9a:62:fa:ea:d6:28:b5:43:
         4e:80:21:17:bf:e7:d0:8d:76:ce:8d:e8:49:a8:44:f6:8e:a7:
         06:db:b6:29:ac:5d:93:92:d1:b4:a2:42:69:80:28:10:02:c1:
         b5:ac:29:35:5e:02:4d:c5:64:e6:d5:20:ae:e4:80:e8:82:87:
         a7:53:e2:44:75:f6:91:b1:50:3d:3e:0c:c7:28:60:5a:ba:74:
         da:07:93:f9:15:f5:b2:54:b3:dd:b0:5f:ad:9d:6d:6f:9d:76:
         04:3a:f6:15:7e:f4:1f:cc:41:6d:ef:45:89:ad:d1:ba:2f:23:
         80:fb:cc:e8:3e:ab:02:d3:01:09:90:3b:69:c9:17:ac:55:aa:
         40:7d:0c:5b:dc:7a:18:3a:25:8c:85:5a:65:09:5c:11:02:6c:
         ee:cb:61:6a:6f:e4:72:bc:9d:42:7d:ec:71:e4:b4:31:49:37:
         f0:7c:09:d2:ae:6a:ac:f0:b9:4f:27:81:d4:55:8b:de:8e:1a:
         e7:f1:28:f0:85:ae:2b:91:08:f0:ad:56:20:8d:6d:da:70:65:
         d4:c9:a9:07:9f:99:dc:57:4c:ee:e4:f2:63:bd:d7:2e:b6:b1:
         f5:33:c7:75:57:3f:12:cc:c8:30:1f:ad:55:6e:55:6a:c4:54:
         82:78:1b:0b:20:6a:12:8b:f5:91:61:c1:8f:08:c6:4f:b1:05:
         dc:50:fb:06:e9:0f:21:7f:aa:32:f9:7e:fa:37:85:ba:6c:fc:
         8a:23:a0:b6:5c:da:77:a4:f3:67:f0:b4:70:48:3c:9a:c5:3b:
         9c:1f:9d:dd:52:63:a9:6e:aa:d3:e4:0d:5f:cc:0c:aa:7f:c0:
         6f:59:43:4e:26:1d:c5:97:0c:9c:bf:1e:4f:1e:9c:7d:ee:b6:
         ad:f7:1d:b4:e5:8e:5a:26:53:cd:cd:9e:ab:f0:7c:97:09:a5:
         30:60:c9:64:4a:43:f2:cb:76:a7:d7:1f:ef:c8:fa:d6:5e:f5:
         a1:19:d1:26:8f:e5:90:8b:7d:77:0e:d6:e7:3d:5a:c8:1f:0a:
         12:9d:55:d5:0b:f2:de:0f
-----BEGIN CERTIFICATE-----
MIIE8DCCAtigAwIBAgIBYTANBgkqhkiG9w0BAQsFADBdMQswCQYDVQQGEwJDQTEL
MAkGA1UECAwCT04xCzAJBgNVBAcMAlRPMRAwDgYDVQQKDAdQSVYgT3JnMRAwDgYD
VQQLDAdQSVYgT3JnMRAwDgYDVQQDDAdwaXYub3JnMB4XDTIwMDQxNTIxMDIzMloX
DTIzMDExMDIxMDIzMlowSzELMAkGA1UEBhMCQ0ExCzAJBgNVBAgMAk9OMQswCQYD
VQQHDAJUTzEQMA4GA1UECgwHUElWIE9yZzEQMA4GA1UEAwwHUElWIE9yZzCCASIw
DQYJKoZIhvcNAQEBBQADggEPADCCAQoCggEBANfbbMOl3GXAv3qbYMyMrBUp6rHm
1LYiGXd1XHKQV9fx4bNMLUajX1UCSsO1UM9vYcC8pLGVwC7MIDq/8a0l2QT4bNg9
g3EhUxUpMOhTzrUZjVJxUMpa++TabGUtNbO9Pr4+kxmSDBJGbHNUgSPO4Z8S6aCX
x8hvGlSYjgRKHFoliJfYk9jk9ietfGCNCyQgrkwgrR9ONpV2OJklHLDdnfENWW6F
UuAja54f18c0y5Ocl5ebEq9FmuM+H6Db29QdqqCbBJ8UHv1/1yKW93iOwT79/mVL
VpLLXQ/tIo8ex01lt66QbSykYAJSTnIe8k5UOC8++nubOTsou3NNaYXIruECAwEA
AaOBzDCByTAdBgNVHQ4EFgQUOyp4qcgfwBnRzZ4EHglA44RCsYUwHwYDVR0jBBgw
FoAUBciP9o7tNQcPmZ/n4d0OiVxYGNAwCQYDVR0TBAIwADALBgNVHQ8EBAMCBaAw
QQYDVR0RBDowOIIHcGl2Lm9yZ4ILd3d3LnBpdi5vcmeCDXBpdi5va3RhMS5jb22C
EXd3dy5waXYub2t0YTEuY29tMCwGCWCGSAGG+EIBDQQfFh1PcGVuU1NMIEdlbmVy
YXRlZCBDZXJ0aWZpY2F0ZTANBgkqhkiG9w0BAQsFAAOCAgEAaCYpqywAdfPaoQ/+
Rb+4gAJmvYkN9kdeQm6a0F0WkIwzucfwE2dKdtXDGrKlaTzhfh5xBoO2qQSsM1WF
VVX8sCPs2lYIJe5sclmPksA4bEJkCNFSi0/LsDx8iwZ5xMosF3M5HmK5h+zVER9T
q+mR0ksFNTVwAJpi+urWKLVDToAhF7/n0I12zo3oSahE9o6nBtu2Kaxdk5LRtKJC
aYAoEALBtawpNV4CTcVk5tUgruSA6IKHp1PiRHX2kbFQPT4MxyhgWrp02geT+RX1
slSz3bBfrZ1tb512BDr2FX70H8xBbe9Fia3Rui8jgPvM6D6rAtMBCZA7ackXrFWq
QH0MW9x6GDoljIVaZQlcEQJs7stham/kcrydQn3sceS0MUk38HwJ0q5qrPC5TyeB
1FWL3o4a5/Eo8IWuK5EI8K1WII1t2nBl1MmpB5+Z3FdM7uTyY73XLrax9TPHdVc/
EszIMB+tVW5VasRUgngbCyBqEov1kWHBjwjGT7EF3FD7BukPIX+qMvl++jeFumz8
iiOgtlzad6TzZ/C0cEg8msU7nB+d3VJjqW6q0+QNX8wMqn/Ab1lDTiYdxZcMnL8e
Tx6cfe62rfcdtOWOWiZTzc2eq/B8lwmlMGDJZEpD8st2p9cf78j61l71oRnRJo/l
kIt9dw7W5z1ayB8KEp1V1Qvy3g8=
-----END CERTIFICATE-----
