Certificate:
    Data:
        Version: 3 (0x2)
        Serial Number: 98 (0x62)
    Signature Algorithm: sha256WithRSAEncryption
        Issuer: C=CA, ST=ON, L=TO, O=PIV Org, OU=PIV Org, CN=piv.org
        Validity
            Not Before: Apr 15 22:01:51 2020 GMT
            Not After : Jan 10 22:01:51 2023 GMT
        Subject: C=CA, ST=ON, L=TO, O=PIV Org, CN=PIV Org
        Subject Public Key Info:
            Public Key Algorithm: rsaEncryption
                Public-Key: (4096 bit)
                Modulus:
                    00:bc:41:15:c3:ea:48:c0:57:56:2d:41:9c:65:c9:
                    f0:11:31:05:c1:38:8a:31:f9:f0:f2:c8:3b:ba:03:
                    16:90:c7:56:87:45:46:13:74:4d:c9:7a:49:c1:6c:
                    24:df:28:0a:ae:c9:7d:b1:f3:95:f6:de:b6:30:41:
                    9d:e8:bd:89:f9:ec:ae:be:93:37:8f:63:5f:6f:81:
                    fa:e0:73:07:66:21:1e:e5:46:a7:e0:23:26:ab:30:
                    f1:fe:38:c8:94:04:cf:98:e6:65:aa:bc:21:32:ca:
                    6b:59:02:fb:c3:95:49:6f:74:58:7d:23:64:61:69:
                    a4:32:4b:0e:05:57:11:55:0d:42:9c:ae:44:bf:ec:
                    5d:9e:85:67:50:65:05:8f:ff:a5:e4:16:9a:62:53:
                    cf:8f:b6:85:b5:99:91:e0:d7:dc:46:81:96:f9:df:
                    77:26:a5:15:2a:c9:15:d0:ee:d0:67:23:07:41:23:
                    19:69:6a:77:90:31:04:24:bc:b9:b7:2e:c5:a9:2c:
                    bd:58:c9:d8:99:e2:f6:2e:d9:d9:a3:e9:ea:0e:41:
                    3e:d4:a7:ae:71:89:64:eb:6c:e6:c9:1e:92:22:27:
                    3b:b6:f4:e6:91:57:c6:36:30:23:28:31:6f:eb:74:
                    e5:c0:af:74:21:d1:c6:66:45:15:16:5a:88:de:8b:
                    3e:75:03:fa:cc:02:62:79:bf:ee:2c:d4:ea:a1:5a:
                    a1:c4:0e:1d:35:89:c6:5b:51:4c:d9:3c:ae:d9:69:
                    3c:f2:95:1e:95:2b:fb:cd:d3:fc:25:67:09:72:58:
                    43:4b:78:5b:c8:77:7b:08:2f:d1:46:cd:ae:cc:79:
                    a6:ba:08:fa:fe:91:b3:97:77:fd:cc:46:13:73:9e:
                    1f:25:a1:f9:a3:67:8a:e9:ce:7f:48:29:19:df:13:
                    d2:54:32:8a:03:96:1d:a4:6d:d5:32:0b:3e:1f:2f:
                    6b:78:15:23:db:6b:19:ea:82:69:ea:cc:b7:ec:3b:
                    34:7c:cf:d3:ee:37:6b:8e:79:34:60:5f:f4:ee:a2:
                    cb:36:a5:15:6c:03:37:90:0f:c1:43:3f:07:e0:57:
                    2e:7a:dd:a0:a6:54:d9:f3:e8:ae:ac:b6:d8:df:38:
                    45:5a:4e:0b:35:e3:9d:e7:93:8f:c2:e8:46:21:66:
                    1e:e0:d8:fc:4c:a1:aa:cb:0c:92:06:17:5b:6b:6a:
                    71:6d:d2:28:4d:b4:9d:74:5a:f9:f9:95:fd:9e:01:
                    6b:8a:09:87:6a:ad:42:68:52:51:ce:23:86:01:dd:
                    12:a6:1c:d0:3c:56:96:9b:04:79:18:89:0d:30:f3:
                    20:36:30:ed:36:bc:e4:b7:ee:81:3f:90:dd:31:5f:
                    41:c8:5b
                Exponent: 65537 (0x10001)
        X509v3 extensions:
            X509v3 Subject Key Identifier: 
                25:A5:81:FC:F1:E5:E7:4D:A0:43:86:5B:79:97:64:C8:EB:E3:70:8A
            X509v3 Authority Key Identifier: 
                keyid:05:C8:8F:F6:8E:ED:35:07:0F:99:9F:E7:E1:DD:0E:89:5C:58:18:D0

            X509v3 Basic Constraints: 
                CA:FALSE
            X509v3 Key Usage: 
                Digital Signature, Key Encipherment
            X509v3 Subject Alternative Name: 
                email:piv-user-1@piv.org
            Netscape Comment: 
                OpenSSL Generated Certificate
    Signature Algorithm: sha256WithRSAEncryption
         28:ed:d4:f8:ce:fe:89:44:3e:d3:f6:86:d1:64:de:e6:fd:32:
         75:7b:4f:f0:ef:be:07:fe:46:f3:a3:8a:df:db:d8:f4:73:74:
         44:a0:19:e2:e3:bd:a9:6e:b4:5f:eb:f7:c1:01:24:88:5f:18:
         df:ce:29:45:a2:bd:17:d9:ea:4f:59:61:68:27:44:ec:eb:61:
         77:f3:63:72:2f:b0:76:1b:1b:82:3c:02:9c:50:0f:41:19:9c:
         85:84:cd:be:a0:3f:44:47:af:12:1e:f9:e5:d9:d2:0c:5a:c9:
         e5:6b:c9:f1:2e:b4:a6:37:09:b8:ff:3a:c9:a6:ea:af:6d:b0:
         41:7f:7d:f6:e1:93:a5:e1:f8:50:e0:e0:2f:65:44:7e:8f:d5:
         84:82:63:7f:1e:9f:bd:1a:8f:c1:17:fa:d8:bc:74:3f:62:b8:
         82:48:56:d1:03:61:82:83:27:68:9b:93:53:f5:bf:6f:d5:6a:
         1c:c8:59:3f:79:b6:b1:5e:0e:35:02:60:0a:4b:0c:14:47:b9:
         c0:84:1c:d1:37:fe:46:a2:66:ba:50:27:ba:52:c7:81:ad:79:
         a4:4a:c9:cd:65:ed:93:17:7c:d6:10:e7:14:f6:30:74:ef:a9:
         8d:7c:b0:b5:b9:80:3c:9a:e5:ce:00:f9:63:07:e1:76:25:8d:
         7a:4a:82:35:49:21:90:2f:f9:a5:4b:39:76:8f:84:df:0c:12:
         09:60:02:f2:9c:ad:92:01:c8:a0:39:0f:0c:72:c0:76:1d:63:
         7f:4e:a1:1c:c0:ff:9c:50:ad:11:cd:09:50:cb:1a:ea:64:7a:
         f9:e8:b1:a9:95:8a:64:17:f6:bd:ba:92:f6:74:5b:9a:9f:f6:
         b9:c8:62:bf:cd:74:06:29:11:cd:59:5e:f2:ca:59:b2:21:d8:
         e1:a8:1c:35:20:ec:6b:12:b2:d6:d7:48:84:92:6d:20:8b:5f:
         c6:d2:71:74:de:ce:da:93:72:5c:85:03:58:4d:47:0d:de:5b:
         40:db:e0:03:b6:ef:fe:c1:90:c6:2d:9b:43:2c:80:b8:24:a8:
         bf:8d:c8:0b:a8:b5:55:fd:14:c1:40:42:ff:63:c3:43:d1:f3:
         46:65:bd:57:10:3a:64:db:0d:a0:4d:a4:00:bd:f7:9e:b0:b7:
         8e:ad:43:72:b3:95:16:d3:64:d7:c2:da:9a:36:5b:6a:63:6b:
         0f:1b:b9:13:52:ef:71:68:52:e7:61:b4:a5:af:a4:30:2f:de:
         5e:3e:34:d6:ac:c1:31:a9:dc:84:bc:8d:15:56:07:b4:7e:c7:
         6d:b1:b9:37:99:a3:22:d1:4a:37:16:df:f9:c2:7c:6a:ce:76:
         20:42:ce:78:8d:05:a6:c0
-----BEGIN CERTIFICATE-----
MIIFzDCCA7SgAwIBAgIBYjANBgkqhkiG9w0BAQsFADBdMQswCQYDVQQGEwJDQTEL
MAkGA1UECAwCT04xCzAJBgNVBAcMAlRPMRAwDgYDVQQKDAdQSVYgT3JnMRAwDgYD
VQQLDAdQSVYgT3JnMRAwDgYDVQQDDAdwaXYub3JnMB4XDTIwMDQxNTIyMDE1MVoX
DTIzMDExMDIyMDE1MVowSzELMAkGA1UEBhMCQ0ExCzAJBgNVBAgMAk9OMQswCQYD
VQQHDAJUTzEQMA4GA1UECgwHUElWIE9yZzEQMA4GA1UEAwwHUElWIE9yZzCCAiIw
DQYJKoZIhvcNAQEBBQADggIPADCCAgoCggIBALxBFcPqSMBXVi1BnGXJ8BExBcE4
ijH58PLIO7oDFpDHVodFRhN0Tcl6ScFsJN8oCq7JfbHzlfbetjBBnei9ifnsrr6T
N49jX2+B+uBzB2YhHuVGp+AjJqsw8f44yJQEz5jmZaq8ITLKa1kC+8OVSW90WH0j
ZGFppDJLDgVXEVUNQpyuRL/sXZ6FZ1BlBY//peQWmmJTz4+2hbWZkeDX3EaBlvnf
dyalFSrJFdDu0GcjB0EjGWlqd5AxBCS8ubcuxaksvVjJ2Jni9i7Z2aPp6g5BPtSn
rnGJZOts5skekiInO7b05pFXxjYwIygxb+t05cCvdCHRxmZFFRZaiN6LPnUD+swC
Ynm/7izU6qFaocQOHTWJxltRTNk8rtlpPPKVHpUr+83T/CVnCXJYQ0t4W8h3ewgv
0UbNrsx5proI+v6Rs5d3/cxGE3OeHyWh+aNniunOf0gpGd8T0lQyigOWHaRt1TIL
Ph8va3gVI9trGeqCaerMt+w7NHzP0+43a455NGBf9O6iyzalFWwDN5APwUM/B+BX
LnrdoKZU2fPorqy22N84RVpOCzXjneeTj8LoRiFmHuDY/EyhqssMkgYXW2tqcW3S
KE20nXRa+fmV/Z4Ba4oJh2qtQmhSUc4jhgHdEqYc0DxWlpsEeRiJDTDzIDYw7Ta8
5LfugT+Q3TFfQchbAgMBAAGjgagwgaUwHQYDVR0OBBYEFCWlgfzx5edNoEOGW3mX
ZMjr43CKMB8GA1UdIwQYMBaAFAXIj/aO7TUHD5mf5+HdDolcWBjQMAkGA1UdEwQC
MAAwCwYDVR0PBAQDAgWgMB0GA1UdEQQWMBSBEnBpdi11c2VyLTFAcGl2Lm9yZzAs
BglghkgBhvhCAQ0EHxYdT3BlblNTTCBHZW5lcmF0ZWQgQ2VydGlmaWNhdGUwDQYJ
KoZIhvcNAQELBQADggIBACjt1PjO/olEPtP2htFk3ub9MnV7T/Dvvgf+RvOjit/b
2PRzdESgGeLjvalutF/r98EBJIhfGN/OKUWivRfZ6k9ZYWgnROzrYXfzY3IvsHYb
G4I8ApxQD0EZnIWEzb6gP0RHrxIe+eXZ0gxayeVryfEutKY3Cbj/Osmm6q9tsEF/
ffbhk6Xh+FDg4C9lRH6P1YSCY38en70aj8EX+ti8dD9iuIJIVtEDYYKDJ2ibk1P1
v2/VahzIWT95trFeDjUCYApLDBRHucCEHNE3/kaiZrpQJ7pSx4GteaRKyc1l7ZMX
fNYQ5xT2MHTvqY18sLW5gDya5c4A+WMH4XYljXpKgjVJIZAv+aVLOXaPhN8MEglg
AvKcrZIByKA5DwxywHYdY39OoRzA/5xQrRHNCVDLGupkevnosamVimQX9r26kvZ0
W5qf9rnIYr/NdAYpEc1ZXvLKWbIh2OGoHDUg7GsSstbXSISSbSCLX8bScXTeztqT
clyFA1hNRw3eW0Db4AO27/7BkMYtm0MsgLgkqL+NyAuotVX9FMFAQv9jw0PR80Zl
vVcQOmTbDaBNpAC9956wt46tQ3KzlRbTZNfC2po2W2pjaw8buRNS73FoUudhtKWv
pDAv3l4+NNaswTGp3IS8jRVWB7R+x22xuTeZoyLRSjcW3/nCfGrOdiBCzniNBabA
-----END CERTIFICATE-----
