Certificate:
    Data:
        Version: 3 (0x2)
        Serial Number: 100 (0x64)
    Signature Algorithm: sha256WithRSAEncryption
        Issuer: C=CA, ST=ON, L=TO, O=PIV Org, OU=PIV Org, CN=piv.org
        Validity
            Not Before: Apr 28 16:46:13 2020 GMT
            Not After : Apr 29 16:46:13 2020 GMT
        Subject: C=CA, ST=ON, L=TO, O=PIV Org, CN=PIV Org
        Subject Public Key Info:
            Public Key Algorithm: rsaEncryption
                Public-Key: (4096 bit)
                Modulus:
                    00:c5:b7:25:82:a6:47:4d:56:d1:de:f6:9a:82:0e:
                    9e:39:85:4b:f5:0e:b8:06:08:b2:2a:ca:5c:d0:bf:
                    38:8e:cd:42:01:f1:2e:0b:c9:f9:d3:6c:3d:5f:30:
                    94:13:d7:8a:7e:8f:0c:cc:35:5f:bd:3f:f0:d4:e4:
                    4c:a9:42:4e:1c:2d:7d:76:2c:80:2f:51:7d:26:46:
                    c3:83:33:45:e6:7a:73:91:48:c2:37:48:66:36:bd:
                    35:0c:ea:87:9d:9c:a5:95:ce:50:5a:74:f2:f9:4f:
                    3e:db:fa:73:41:c0:52:63:ac:60:67:8c:b0:e0:d3:
                    a3:e0:52:a1:5b:31:b9:48:24:36:26:bf:67:9f:4b:
                    5a:d7:46:0a:96:27:c1:1d:1d:02:ff:5e:eb:74:c2:
                    55:2a:4e:32:65:31:ee:7e:cd:6a:cd:a3:c4:a7:28:
                    1b:57:23:87:a9:3e:e5:e8:ae:e3:2d:37:9f:ce:c8:
                    1c:a4:0c:2c:90:1b:03:d2:71:91:1a:e3:ff:38:a5:
                    13:01:c1:4d:b5:98:8a:41:e3:65:17:e7:4d:0d:3e:
                    e6:ce:90:64:68:4a:00:15:5c:19:59:f3:16:ba:0b:
                    c4:19:0e:88:c7:9f:4e:7e:8c:70:7c:f6:88:fd:f7:
                    69:de:97:51:dd:ee:48:3f:c0:51:3e:58:36:ec:e9:
                    c6:99:68:91:d3:a8:b8:e9:32:a0:33:5f:42:f7:dd:
                    1b:34:c3:2e:95:70:a8:bb:66:47:d2:d8:9c:28:d7:
                    57:89:6e:17:8c:35:d1:24:ab:d6:a6:08:b3:41:9c:
                    12:3d:cf:79:8d:6e:c6:99:44:e9:45:56:78:b5:5d:
                    45:92:a6:3e:f8:1b:97:38:7f:50:5e:67:51:d7:bc:
                    6f:7c:86:15:47:32:3d:0e:1e:9c:b4:43:6c:a3:53:
                    f4:4a:52:8b:f6:b6:0b:98:14:f4:2d:66:f7:3e:8e:
                    dc:25:e8:b9:83:60:c3:d0:71:b3:b3:39:a0:5f:de:
                    84:47:84:8c:aa:68:1d:6a:87:58:c2:cc:50:5e:e7:
                    dc:0c:5d:15:06:1d:3d:b3:a3:f1:8d:33:d0:60:8c:
                    fe:8b:95:f6:61:34:ce:a7:3d:43:ec:10:2e:a6:11:
                    7c:1e:b6:c8:fa:e6:df:fe:18:b1:b5:8a:e5:87:1c:
                    45:20:8d:5a:a2:a0:07:1d:75:47:c7:cc:91:e0:31:
                    8a:ee:de:04:2a:79:8b:e8:91:6f:fd:8d:dc:09:28:
                    50:25:8d:1f:5d:f5:f8:55:e5:39:25:80:c9:f2:75:
                    e1:d3:84:b1:e1:82:8f:b1:0f:4c:bd:c4:bd:e9:a1:
                    1b:80:ac:4f:d9:53:b1:28:cd:8e:1b:29:5a:62:7d:
                    fa:fb:c7
                Exponent: 65537 (0x10001)
        X509v3 extensions:
            X509v3 Subject Key Identifier: 
                36:09:45:33:23:03:65:97:95:04:69:66:3D:5D:CD:94:56:82:18:FC
            X509v3 Authority Key Identifier: 
                keyid:05:C8:8F:F6:8E:ED:35:07:0F:99:9F:E7:E1:DD:0E:89:5C:58:18:D0

            X509v3 Basic Constraints: 
                CA:FALSE
            X509v3 Key Usage: 
                Digital Signature, Key Encipherment
            X509v3 Subject Alternative Name: 
                othername:<unsupported>, email:piv-user-1@piv.org
            Netscape Comment: 
                OpenSSL Generated Certificate
    Signature Algorithm: sha256WithRSAEncryption
         43:b3:73:66:3c:09:ec:b1:c2:9d:17:72:38:2a:61:42:f4:53:
         b7:99:c6:c0:61:6f:65:e1:d7:86:e6:eb:75:83:af:e5:3d:80:
         e9:95:ee:4c:49:8a:3c:e8:83:2a:50:4a:4a:22:c7:10:fa:6f:
         a1:57:db:a6:ce:68:e4:42:9f:3a:ca:0b:74:ca:c1:ee:2b:d3:
         95:92:52:90:c0:19:fe:b2:5b:3e:0b:81:88:04:0e:54:83:74:
         2d:a2:71:4c:7b:72:5a:91:43:fa:39:e8:8e:e5:eb:bc:dc:2b:
         c6:83:19:ed:de:dc:4c:7c:40:ef:86:f0:32:ed:fb:88:39:a6:
         ab:f0:6c:e7:b6:0d:ff:57:d2:a0:a8:40:5e:7f:ff:08:ae:30:
         1d:30:4c:d5:55:00:b6:0f:7c:42:7f:c0:20:d7:21:71:39:07:
         4d:17:b5:2a:bb:f1:e2:3d:80:32:ba:03:f8:a2:1f:cc:61:3b:
         0c:4c:c4:30:15:3b:5e:f6:e4:1f:83:b4:7b:a3:85:28:28:15:
         08:5e:2e:ac:25:4a:a1:06:06:a0:ef:81:3d:2d:a6:ce:3f:9b:
         df:bf:30:f4:52:7e:ae:fe:a1:c6:28:70:e7:f9:6c:c8:78:55:
         1a:df:f5:13:ab:41:7d:e3:c3:f8:05:ec:ac:bd:d7:a6:63:ce:
         2f:47:7f:a3:a4:c3:6a:c9:cb:f1:be:79:8c:8b:be:5b:84:ed:
         89:b3:b5:0a:80:2d:59:3b:5e:21:89:30:db:fc:01:d7:e6:b8:
         a4:28:22:b6:78:d4:57:2b:1a:ca:24:ba:7f:f7:e5:70:52:6d:
         d0:c6:15:36:b8:5d:3a:2b:1f:56:1a:d2:83:51:47:d9:6e:41:
         0c:9a:69:f2:39:26:07:ad:d2:48:47:8e:54:be:28:71:ca:7d:
         8a:41:12:11:b0:0c:3f:43:54:d7:90:1d:ba:9a:26:94:f2:38:
         84:39:5f:35:44:2c:15:b1:0d:4c:51:04:21:cb:8f:d0:4e:f7:
         4b:6c:b5:e8:81:a6:3b:99:42:6e:d0:62:aa:01:1e:71:2f:fc:
         a1:3c:14:a4:f7:b9:1e:9b:1f:36:18:b6:35:a2:40:c0:6b:05:
         9f:ae:75:36:1f:df:6d:25:72:f2:97:05:db:94:c5:7d:99:0f:
         59:83:2f:47:8b:5d:59:16:d5:b1:bc:90:6a:25:17:95:17:03:
         04:2d:67:7d:5e:60:98:45:4f:d0:3a:22:2e:b0:e3:c3:9e:b2:
         25:66:e3:47:e3:d2:58:c0:1a:88:22:dc:c4:b0:33:70:34:3d:
         41:04:26:99:6f:92:1f:ab:74:50:56:41:79:db:87:6f:4e:df:
         63:df:1c:b3:46:b8:14:ec
-----BEGIN CERTIFICATE-----
MIIF8DCCA9igAwIBAgIBZDANBgkqhkiG9w0BAQsFADBdMQswCQYDVQQGEwJDQTEL
MAkGA1UECAwCT04xCzAJBgNVBAcMAlRPMRAwDgYDVQQKDAdQSVYgT3JnMRAwDgYD
VQQLDAdQSVYgT3JnMRAwDgYDVQQDDAdwaXYub3JnMB4XDTIwMDQyODE2NDYxM1oX
DTIwMDQyOTE2NDYxM1owSzELMAkGA1UEBhMCQ0ExCzAJBgNVBAgMAk9OMQswCQYD
VQQHDAJUTzEQMA4GA1UECgwHUElWIE9yZzEQMA4GA1UEAwwHUElWIE9yZzCCAiIw
DQYJKoZIhvcNAQEBBQADggIPADCCAgoCggIBAMW3JYKmR01W0d72moIOnjmFS/UO
uAYIsirKXNC/OI7NQgHxLgvJ+dNsPV8wlBPXin6PDMw1X70/8NTkTKlCThwtfXYs
gC9RfSZGw4MzReZ6c5FIwjdIZja9NQzqh52cpZXOUFp08vlPPtv6c0HAUmOsYGeM
sODTo+BSoVsxuUgkNia/Z59LWtdGCpYnwR0dAv9e63TCVSpOMmUx7n7Nas2jxKco
G1cjh6k+5eiu4y03n87IHKQMLJAbA9JxkRrj/zilEwHBTbWYikHjZRfnTQ0+5s6Q
ZGhKABVcGVnzFroLxBkOiMefTn6McHz2iP33ad6XUd3uSD/AUT5YNuzpxplokdOo
uOkyoDNfQvfdGzTDLpVwqLtmR9LYnCjXV4luF4w10SSr1qYIs0GcEj3PeY1uxplE
6UVWeLVdRZKmPvgblzh/UF5nUde8b3yGFUcyPQ4enLRDbKNT9EpSi/a2C5gU9C1m
9z6O3CXouYNgw9Bxs7M5oF/ehEeEjKpoHWqHWMLMUF7n3AxdFQYdPbOj8Y0z0GCM
/ouV9mE0zqc9Q+wQLqYRfB62yPrm3/4YsbWK5YccRSCNWqKgBx11R8fMkeAxiu7e
BCp5i+iRb/2N3AkoUCWNH131+FXlOSWAyfJ14dOEseGCj7EPTL3EvemhG4CsT9lT
sSjNjhspWmJ9+vvHAgMBAAGjgcwwgckwHQYDVR0OBBYEFDYJRTMjA2WXlQRpZj1d
zZRWghj8MB8GA1UdIwQYMBaAFAXIj/aO7TUHD5mf5+HdDolcWBjQMAkGA1UdEwQC
MAAwCwYDVR0PBAQDAgWgMEEGA1UdEQQ6MDigIgYKKwYBBAGCNxQCA6AUDBJwaXYt
dXNlci0xQHBpdi5vcmeBEnBpdi11c2VyLTFAcGl2Lm9yZzAsBglghkgBhvhCAQ0E
HxYdT3BlblNTTCBHZW5lcmF0ZWQgQ2VydGlmaWNhdGUwDQYJKoZIhvcNAQELBQAD
ggIBAEOzc2Y8Ceyxwp0XcjgqYUL0U7eZxsBhb2Xh14bm63WDr+U9gOmV7kxJijzo
gypQSkoixxD6b6FX26bOaORCnzrKC3TKwe4r05WSUpDAGf6yWz4LgYgEDlSDdC2i
cUx7clqRQ/o56I7l67zcK8aDGe3e3Ex8QO+G8DLt+4g5pqvwbOe2Df9X0qCoQF5/
/wiuMB0wTNVVALYPfEJ/wCDXIXE5B00XtSq78eI9gDK6A/iiH8xhOwxMxDAVO172
5B+DtHujhSgoFQheLqwlSqEGBqDvgT0tps4/m9+/MPRSfq7+ocYocOf5bMh4VRrf
9ROrQX3jw/gF7Ky916Zjzi9Hf6Okw2rJy/G+eYyLvluE7YmztQqALVk7XiGJMNv8
AdfmuKQoIrZ41FcrGsokun/35XBSbdDGFTa4XTorH1Ya0oNRR9luQQyaafI5Jget
0khHjlS+KHHKfYpBEhGwDD9DVNeQHbqaJpTyOIQ5XzVELBWxDUxRBCHLj9BO90ts
teiBpjuZQm7QYqoBHnEv/KE8FKT3uR6bHzYYtjWiQMBrBZ+udTYf320lcvKXBduU
xX2ZD1mDL0eLXVkW1bG8kGolF5UXAwQtZ31eYJhFT9A6Ii6w48OesiVm40fj0ljA
Gogi3MSwM3A0PUEEJplvkh+rdFBWQXnbh29O32PfHLNGuBTs
-----END CERTIFICATE-----
