Certificate:
    Data:
        Version: 3 (0x2)
        Serial Number: 101 (0x65)
    Signature Algorithm: sha256WithRSAEncryption
        Issuer: C=CA, ST=ON, L=TO, O=PIV Org, OU=PIV Org, CN=piv.org
        Validity
            Not Before: Aug 18 18:27:19 2020 GMT
            Not After : May 15 18:27:19 2023 GMT
        Subject: C=CA, ST=ON, L=TO, O=PIV Org, CN=PIV Org
        Subject Public Key Info:
            Public Key Algorithm: rsaEncryption
                Public-Key: (2048 bit)
                Modulus:
                    00:ab:7b:52:1e:f9:31:1d:57:59:cc:18:3e:1e:72:
                    c8:80:2b:2e:7b:33:84:85:31:f3:51:d3:b6:a7:3e:
                    b3:9f:f5:b6:b3:f9:4b:2d:b0:13:b0:40:72:dd:d3:
                    1d:9a:de:f2:a5:f7:d7:1d:32:e1:a2:22:62:b3:0b:
                    31:cc:e0:32:4c:2d:38:84:7f:49:26:cf:7e:68:74:
                    3f:e7:38:72:4f:ac:22:7f:50:e8:ce:3a:94:9e:38:
                    5c:22:b3:34:cc:49:9f:75:a3:4d:22:c6:71:bc:2c:
                    64:e5:1e:fc:c4:f4:3a:0b:39:12:7f:4d:c0:31:f5:
                    3e:72:f0:ff:68:43:e4:bd:b1:2a:d3:ef:0e:36:95:
                    5b:66:dc:60:10:91:69:25:be:b9:a3:09:a4:e6:62:
                    c0:06:c2:9a:b1:c3:89:cc:08:5d:81:a9:81:f5:24:
                    15:ec:47:6f:7e:fd:6c:1c:ba:43:2d:fa:02:32:c9:
                    70:98:93:b2:f1:b4:e5:3b:14:1b:21:63:f2:5e:17:
                    14:95:1e:41:bb:e2:53:8c:d6:2b:6c:41:4b:d3:39:
                    50:bd:1b:e2:23:3d:6a:80:c4:de:18:ef:44:2d:37:
                    b6:eb:ac:18:e5:71:4e:df:c1:3e:5c:0b:ac:d7:67:
                    aa:ae:72:d9:b7:6a:13:1d:db:db:74:f0:93:15:60:
                    38:65
                Exponent: 65537 (0x10001)
        X509v3 extensions:
            X509v3 Subject Key Identifier: 
                D5:65:6E:78:42:CC:D0:0F:2A:09:D7:FB:22:3B:50:AB:C8:4A:44:42
            X509v3 Authority Key Identifier: 
                keyid:05:C8:8F:F6:8E:ED:35:07:0F:99:9F:E7:E1:DD:0E:89:5C:58:18:D0

            X509v3 Basic Constraints: 
                CA:FALSE
            X509v3 Key Usage: 
                Digital Signature, Key Encipherment
            X509v3 Subject Alternative Name: 
                othername:<unsupported>, email:piv-user-1@piv.org, URI:urn:uuid:029fbb34-e17d-11ea-87d0-0242ac130003
            Netscape Comment: 
                OpenSSL Generated Certificate
    Signature Algorithm: sha256WithRSAEncryption
         76:f5:ff:96:82:fd:03:0b:d4:7d:51:9f:76:0c:92:21:30:52:
         0e:3d:4f:cd:77:b0:6d:63:6f:7c:21:0d:f9:e5:36:01:ac:f5:
         92:d5:08:97:c0:67:1a:17:88:4a:1b:6d:c3:df:98:b3:2c:51:
         0e:44:bd:b3:b4:45:9a:15:8e:42:47:31:ac:6d:26:20:16:48:
         2c:53:bd:a4:4d:d5:fd:79:13:33:04:66:17:2f:a7:29:4f:b9:
         45:99:36:17:02:ab:31:bf:b5:7b:ee:3c:35:0c:f7:11:da:8f:
         96:7c:b3:a1:84:9d:76:e7:95:e9:10:31:02:45:5b:89:d8:88:
         5f:8d:46:e7:04:5f:40:14:6f:b7:6e:1a:7d:7e:a4:12:20:0e:
         df:c7:d9:e2:ed:ba:15:24:65:dc:b0:33:77:c2:55:31:cf:90:
         0f:92:4a:9a:a7:98:70:9c:7e:51:1f:00:a6:c7:68:af:94:50:
         f4:30:54:4e:ef:88:92:e3:1f:9b:e7:a9:b1:ab:10:17:2b:db:
         7e:e8:9e:0f:8c:ba:43:48:cd:35:2d:3f:1f:ff:b6:96:17:c0:
         f7:bf:9b:f1:f7:2e:f4:2c:23:93:bc:0a:79:c3:db:b4:8e:d4:
         3d:db:4f:4d:61:2c:e9:49:91:b4:c8:83:ca:3f:8c:1f:4f:5b:
         67:e7:dd:e4:9c:ba:15:21:c4:6c:37:2c:45:15:4e:43:cf:d4:
         e7:50:e0:bd:7c:55:db:b8:aa:a2:b2:4f:1a:99:79:78:79:04:
         2a:24:2f:0b:fe:e4:1a:5e:ce:bc:03:e3:b2:44:58:af:fa:1e:
         2a:8a:bd:bc:a0:8e:13:20:49:6a:21:ba:ec:21:28:5f:c3:9c:
         7e:4c:ba:e1:91:a1:5d:b6:c9:83:0e:37:ed:1b:79:67:75:a7:
         20:ab:e0:63:14:c0:cc:11:7d:9e:56:a3:c6:f9:c9:c6:bd:c1:
         cd:2a:a3:33:bc:84:a2:54:fd:7c:f9:57:66:cb:a6:76:e7:a6:
         c4:6e:e2:b9:c2:2e:5c:50:82:86:33:37:bd:db:f7:4b:94:95:
         65:a3:71:0a:39:c3:45:60:94:53:6e:64:a3:4a:39:eb:d1:a2:
         0e:e6:0e:1b:55:f3:ae:95:58:10:b9:04:19:06:35:dd:1f:e7:
         f8:9c:70:6f:b1:e0:68:dd:08:c6:03:87:bf:bf:e6:d8:91:46:
         a9:58:31:e7:54:cf:42:4c:95:03:2f:1b:2c:2a:57:25:6b:80:
         f2:b7:bf:8b:99:9c:08:17:2c:50:0a:4c:ce:d3:d9:e4:2d:a4:
         f9:14:e8:9e:bd:63:ff:51:64:1d:f7:a3:b6:3a:60:72:c3:a5:
         c9:e5:b0:63:20:89:c4:6e
-----BEGIN CERTIFICATE-----
MIIFHzCCAwegAwIBAgIBZTANBgkqhkiG9w0BAQsFADBdMQswCQYDVQQGEwJDQTEL
MAkGA1UECAwCT04xCzAJBgNVBAcMAlRPMRAwDgYDVQQKDAdQSVYgT3JnMRAwDgYD
VQQLDAdQSVYgT3JnMRAwDgYDVQQDDAdwaXYub3JnMB4XDTIwMDgxODE4MjcxOVoX
DTIzMDUxNTE4MjcxOVowSzELMAkGA1UEBhMCQ0ExCzAJBgNVBAgMAk9OMQswCQYD
VQQHDAJUTzEQMA4GA1UECgwHUElWIE9yZzEQMA4GA1UEAwwHUElWIE9yZzCCASIw
DQYJKoZIhvcNAQEBBQADggEPADCCAQoCggEBAKt7Uh75MR1XWcwYPh5yyIArLnsz
hIUx81HTtqc+s5/1trP5Sy2wE7BAct3THZre8qX31x0y4aIiYrMLMczgMkwtOIR/
SSbPfmh0P+c4ck+sIn9Q6M46lJ44XCKzNMxJn3WjTSLGcbwsZOUe/MT0Ogs5En9N
wDH1PnLw/2hD5L2xKtPvDjaVW2bcYBCRaSW+uaMJpOZiwAbCmrHDicwIXYGpgfUk
FexHb379bBy6Qy36AjLJcJiTsvG05TsUGyFj8l4XFJUeQbviU4zWK2xBS9M5UL0b
4iM9aoDE3hjvRC03tuusGOVxTt/BPlwLrNdnqq5y2bdqEx3b23TwkxVgOGUCAwEA
AaOB+zCB+DAdBgNVHQ4EFgQU1WVueELM0A8qCdf7IjtQq8hKREIwHwYDVR0jBBgw
FoAUBciP9o7tNQcPmZ/n4d0OiVxYGNAwCQYDVR0TBAIwADALBgNVHQ8EBAMCBaAw
cAYDVR0RBGkwZ6AiBgorBgEEAYI3FAIDoBQMEnBpdi11c2VyLTFAcGl2Lm9yZ4ES
cGl2LXVzZXItMUBwaXYub3Jnhi11cm46dXVpZDowMjlmYmIzNC1lMTdkLTExZWEt
ODdkMC0wMjQyYWMxMzAwMDMwLAYJYIZIAYb4QgENBB8WHU9wZW5TU0wgR2VuZXJh
dGVkIENlcnRpZmljYXRlMA0GCSqGSIb3DQEBCwUAA4ICAQB29f+Wgv0DC9R9UZ92
DJIhMFIOPU/Nd7BtY298IQ355TYBrPWS1QiXwGcaF4hKG23D35izLFEORL2ztEWa
FY5CRzGsbSYgFkgsU72kTdX9eRMzBGYXL6cpT7lFmTYXAqsxv7V77jw1DPcR2o+W
fLOhhJ1255XpEDECRVuJ2IhfjUbnBF9AFG+3bhp9fqQSIA7fx9ni7boVJGXcsDN3
wlUxz5APkkqap5hwnH5RHwCmx2ivlFD0MFRO74iS4x+b56mxqxAXK9t+6J4PjLpD
SM01LT8f/7aWF8D3v5vx9y70LCOTvAp5w9u0jtQ9209NYSzpSZG0yIPKP4wfT1tn
593knLoVIcRsNyxFFU5Dz9TnUOC9fFXbuKqisk8amXl4eQQqJC8L/uQaXs68A+Oy
RFiv+h4qir28oI4TIElqIbrsIShfw5x+TLrhkaFdtsmDDjftG3lndacgq+BjFMDM
EX2eVqPG+cnGvcHNKqMzvISiVP18+Vdmy6Z256bEbuK5wi5cUIKGMze92/dLlJVl
o3EKOcNFYJRTbmSjSjnr0aIO5g4bVfOulVgQuQQZBjXdH+f4nHBvseBo3QjGA4e/
v+bYkUapWDHnVM9CTJUDLxssKlcla4Dyt7+LmZwIFyxQCkzO09nkLaT5FOievWP/
UWQd96O2OmByw6XJ5bBjIInEbg==
-----END CERTIFICATE-----
