Certificate:
    Data:
        Version: 3 (0x2)
        Serial Number: 102 (0x66)
    Signature Algorithm: sha256WithRSAEncryption
        Issuer: C=CA, ST=ON, L=TO, O=PIV Org, OU=PIV Org, CN=piv.org
        Validity
            Not Before: Aug 18 19:51:01 2020 GMT
            Not After : May 15 19:51:01 2023 GMT
        Subject: C=CA, ST=ON, L=TO, O=PIV Org, CN=PIV Org
        Subject Public Key Info:
            Public Key Algorithm: rsaEncryption
                Public-Key: (2048 bit)
                Modulus:
                    00:ab:7b:52:1e:f9:31:1d:57:59:cc:18:3e:1e:72:
                    c8:80:2b:2e:7b:33:84:85:31:f3:51:d3:b6:a7:3e:
                    b3:9f:f5:b6:b3:f9:4b:2d:b0:13:b0:40:72:dd:d3:
                    1d:9a:de:f2:a5:f7:d7:1d:32:e1:a2:22:62:b3:0b:
                    31:cc:e0:32:4c:2d:38:84:7f:49:26:cf:7e:68:74:
                    3f:e7:38:72:4f:ac:22:7f:50:e8:ce:3a:94:9e:38:
                    5c:22:b3:34:cc:49:9f:75:a3:4d:22:c6:71:bc:2c:
                    64:e5:1e:fc:c4:f4:3a:0b:39:12:7f:4d:c0:31:f5:
                    3e:72:f0:ff:68:43:e4:bd:b1:2a:d3:ef:0e:36:95:
                    5b:66:dc:60:10:91:69:25:be:b9:a3:09:a4:e6:62:
                    c0:06:c2:9a:b1:c3:89:cc:08:5d:81:a9:81:f5:24:
                    15:ec:47:6f:7e:fd:6c:1c:ba:43:2d:fa:02:32:c9:
                    70:98:93:b2:f1:b4:e5:3b:14:1b:21:63:f2:5e:17:
                    14:95:1e:41:bb:e2:53:8c:d6:2b:6c:41:4b:d3:39:
                    50:bd:1b:e2:23:3d:6a:80:c4:de:18:ef:44:2d:37:
                    b6:eb:ac:18:e5:71:4e:df:c1:3e:5c:0b:ac:d7:67:
                    aa:ae:72:d9:b7:6a:13:1d:db:db:74:f0:93:15:60:
                    38:65
                Exponent: 65537 (0x10001)
        X509v3 extensions:
            X509v3 Subject Key Identifier: 
                D5:65:6E:78:42:CC:D0:0F:2A:09:D7:FB:22:3B:50:AB:C8:4A:44:42
            X509v3 Authority Key Identifier: 
                keyid:4C:C3:25:AC:F0:68:4C:61:43:73:3D:DD:70:AB:25:8A:89:A2:91:84

            X509v3 Basic Constraints: 
                CA:FALSE
            X509v3 Key Usage: 
                Digital Signature, Key Encipherment
            X509v3 Subject Alternative Name: 
                othername:<unsupported>, email:piv-user-1@piv.org, URI:urn:uuid:029fbb34-e17d-11ea-87d0-0242ac130003
            Netscape Comment: 
                OpenSSL Generated Certificate
    Signature Algorithm: sha256WithRSAEncryption
         a4:00:6b:61:93:d2:73:92:80:75:c4:f6:4c:e9:28:22:54:40:
         2c:ee:1c:8b:1d:15:f6:6d:1f:d2:5c:04:3b:46:6b:1f:4f:fb:
         df:c0:ac:e7:f7:73:8c:c2:25:17:5f:80:41:23:09:04:f3:66:
         11:64:f1:08:7e:fb:00:b7:dc:33:6c:84:d5:0f:b3:c3:a5:c4:
         c3:aa:7a:f0:38:4a:9c:d8:4c:ed:f8:2b:ac:b3:f9:09:3c:cc:
         eb:d4:8c:9a:44:08:32:8b:a6:a5:1d:7c:81:ca:b6:7b:f3:5f:
         90:ce:44:a2:c7:8e:04:27:11:87:20:8e:bc:c4:80:60:ad:53:
         b6:b9:e8:67:27:e5:7c:13:f5:c6:6e:c8:0d:44:86:08:af:39:
         49:db:22:c6:6f:05:91:75:64:df:93:32:87:78:e4:c0:0c:b0:
         21:f0:de:f8:56:41:0b:c6:7a:5b:20:ee:bb:b7:d1:76:16:8d:
         fc:c0:80:d6:b4:fe:3b:27:2e:60:a7:6d:22:75:37:f2:93:a0:
         91:9c:fb:79:39:d5:8a:19:07:d2:cb:32:0d:71:6e:57:76:1d:
         bc:8e:8d:fb:86:bc:97:27:7e:bc:3c:c0:a2:33:c3:9a:e2:5d:
         f5:20:aa:d3:e9:82:48:5c:e7:b8:82:a7:ac:55:67:94:1c:5d:
         a3:4d:4c:d5
-----BEGIN CERTIFICATE-----
MIIEHzCCAwegAwIBAgIBZjANBgkqhkiG9w0BAQsFADBdMQswCQYDVQQGEwJDQTEL
MAkGA1UECAwCT04xCzAJBgNVBAcMAlRPMRAwDgYDVQQKDAdQSVYgT3JnMRAwDgYD
VQQLDAdQSVYgT3JnMRAwDgYDVQQDDAdwaXYub3JnMB4XDTIwMDgxODE5NTEwMVoX
DTIzMDUxNTE5NTEwMVowSzELMAkGA1UEBhMCQ0ExCzAJBgNVBAgMAk9OMQswCQYD
VQQHDAJUTzEQMA4GA1UECgwHUElWIE9yZzEQMA4GA1UEAwwHUElWIE9yZzCCASIw
DQYJKoZIhvcNAQEBBQADggEPADCCAQoCggEBAKt7Uh75MR1XWcwYPh5yyIArLnsz
hIUx81HTtqc+s5/1trP5Sy2wE7BAct3THZre8qX31x0y4aIiYrMLMczgMkwtOIR/
SSbPfmh0P+c4ck+sIn9Q6M46lJ44XCKzNMxJn3WjTSLGcbwsZOUe/MT0Ogs5En9N
wDH1PnLw/2hD5L2xKtPvDjaVW2bcYBCRaSW+uaMJpOZiwAbCmrHDicwIXYGpgfUk
FexHb379bBy6Qy36AjLJcJiTsvG05TsUGyFj8l4XFJUeQbviU4zWK2xBS9M5UL0b
4iM9aoDE3hjvRC03tuusGOVxTt/BPlwLrNdnqq5y2bdqEx3b23TwkxVgOGUCAwEA
AaOB+zCB+DAdBgNVHQ4EFgQU1WVueELM0A8qCdf7IjtQq8hKREIwHwYDVR0jBBgw
FoAUTMMlrPBoTGFDcz3dcKsliomikYQwCQYDVR0TBAIwADALBgNVHQ8EBAMCBaAw
cAYDVR0RBGkwZ6AiBgorBgEEAYI3FAIDoBQMEnBpdi11c2VyLTFAcGl2Lm9yZ4ES
cGl2LXVzZXItMUBwaXYub3Jnhi11cm46dXVpZDowMjlmYmIzNC1lMTdkLTExZWEt
ODdkMC0wMjQyYWMxMzAwMDMwLAYJYIZIAYb4QgENBB8WHU9wZW5TU0wgR2VuZXJh
dGVkIENlcnRpZmljYXRlMA0GCSqGSIb3DQEBCwUAA4IBAQCkAGthk9JzkoB1xPZM
6SgiVEAs7hyLHRX2bR/SXAQ7RmsfT/vfwKzn93OMwiUXX4BBIwkE82YRZPEIfvsA
t9wzbITVD7PDpcTDqnrwOEqc2Ezt+Cuss/kJPMzr1IyaRAgyi6alHXyByrZ781+Q
zkSix44EJxGHII68xIBgrVO2uehnJ+V8E/XGbsgNRIYIrzlJ2yLGbwWRdWTfkzKH
eOTADLAh8N74VkELxnpbIO67t9F2Fo38wIDWtP47Jy5gp20idTfyk6CRnPt5OdWK
GQfSyzINcW5Xdh28jo37hryXJ368PMCiM8Oa4l31IKrT6YJIXOe4gqesVWeUHF2j
TUzV
-----END CERTIFICATE-----
