Certificate:
    Data:
        Version: 3 (0x2)
        Serial Number: 103 (0x67)
    Signature Algorithm: sha256WithRSAEncryption
        Issuer: C=CA, ST=ON, L=TO, O=PIV Org, OU=PIV Org, CN=piv.org
        Validity
            Not Before: Aug 19 19:28:03 2020 GMT
            Not After : May 16 19:28:03 2023 GMT
        Subject: C=CA, ST=ON, L=TO, O=PIV Org, CN=PIV Org
        Subject Public Key Info:
            Public Key Algorithm: rsaEncryption
                Public-Key: (2048 bit)
                Modulus:
                    00:ab:7b:52:1e:f9:31:1d:57:59:cc:18:3e:1e:72:
                    c8:80:2b:2e:7b:33:84:85:31:f3:51:d3:b6:a7:3e:
                    b3:9f:f5:b6:b3:f9:4b:2d:b0:13:b0:40:72:dd:d3:
                    1d:9a:de:f2:a5:f7:d7:1d:32:e1:a2:22:62:b3:0b:
                    31:cc:e0:32:4c:2d:38:84:7f:49:26:cf:7e:68:74:
                    3f:e7:38:72:4f:ac:22:7f:50:e8:ce:3a:94:9e:38:
                    5c:22:b3:34:cc:49:9f:75:a3:4d:22:c6:71:bc:2c:
                    64:e5:1e:fc:c4:f4:3a:0b:39:12:7f:4d:c0:31:f5:
                    3e:72:f0:ff:68:43:e4:bd:b1:2a:d3:ef:0e:36:95:
                    5b:66:dc:60:10:91:69:25:be:b9:a3:09:a4:e6:62:
                    c0:06:c2:9a:b1:c3:89:cc:08:5d:81:a9:81:f5:24:
                    15:ec:47:6f:7e:fd:6c:1c:ba:43:2d:fa:02:32:c9:
                    70:98:93:b2:f1:b4:e5:3b:14:1b:21:63:f2:5e:17:
                    14:95:1e:41:bb:e2:53:8c:d6:2b:6c:41:4b:d3:39:
                    50:bd:1b:e2:23:3d:6a:80:c4:de:18:ef:44:2d:37:
                    b6:eb:ac:18:e5:71:4e:df:c1:3e:5c:0b:ac:d7:67:
                    aa:ae:72:d9:b7:6a:13:1d:db:db:74:f0:93:15:60:
                    38:65
                Exponent: 65537 (0x10001)
        X509v3 extensions:
            X509v3 Subject Key Identifier: 
                D5:65:6E:78:42:CC:D0:0F:2A:09:D7:FB:22:3B:50:AB:C8:4A:44:42
            X509v3 Authority Key Identifier: 
                keyid:9F:AE:74:1C:02:AD:78:3C:12:DA:48:38:3F:94:7F:33:41:1F:49:EC

            X509v3 Basic Constraints: 
                CA:FALSE
            X509v3 Key Usage: 
                Digital Signature, Key Encipherment
            X509v3 Subject Alternative Name: 
                othername:<unsupported>, email:piv-user-1@piv.org, URI:urn:uuid:029fbb34-e17d-11ea-87d0-0242ac130003
            Netscape Comment: 
                OpenSSL Generated Certificate
    Signature Algorithm: sha256WithRSAEncryption
         9c:65:91:b0:e3:41:06:f2:34:fe:1f:b0:82:4d:42:95:f6:3a:
         2b:98:27:20:86:42:e1:91:db:04:1e:19:0e:33:b4:35:76:81:
         ce:77:aa:6f:f2:5e:24:88:01:50:92:ae:2d:89:7c:96:39:06:
         06:44:f3:72:dd:8f:b1:2b:7e:11:e7:78:a8:e6:2f:20:8d:18:
         0b:06:1a:f1:29:01:5f:5b:9c:0d:15:af:5a:eb:fa:cf:30:4b:
         c3:39:f5:03:d4:11:f7:05:a8:b3:5c:13:31:71:4b:20:c3:37:
         7c:0f:fc:71:f7:e3:3e:2e:24:ee:24:ac:67:83:84:b4:05:b2:
         5a:01:7f:29:f7:04:c5:79:f4:30:6b:fc:3c:5e:b1:a1:87:b1:
         e2:71:0d:de:d7:cd:30:cd:79:a8:4c:b8:28:eb:a8:08:33:7b:
         06:ea:26:66:9d:c5:49:ab:94:64:2f:60:7b:2a:33:29:8f:e6:
         82:b1:02:c1:f9:83:a0:9a:b7:3a:08:fd:15:6d:a5:69:be:69:
         40:5b:38:d4:8a:45:a4:b9:e8:30:2f:f3:51:79:2a:a9:4b:0c:
         95:a3:97:06:09:ce:5f:7e:da:b2:0d:9d:c7:11:a5:39:23:8e:
         ff:06:bb:cb:ba:38:18:b1:d7:54:94:e3:8f:14:e6:3a:46:bc:
         ee:85:dc:87
-----BEGIN CERTIFICATE-----
MIIEHzCCAwegAwIBAgIBZzANBgkqhkiG9w0BAQsFADBdMQswCQYDVQQGEwJDQTEL
MAkGA1UECAwCT04xCzAJBgNVBAcMAlRPMRAwDgYDVQQKDAdQSVYgT3JnMRAwDgYD
VQQLDAdQSVYgT3JnMRAwDgYDVQQDDAdwaXYub3JnMB4XDTIwMDgxOTE5MjgwM1oX
DTIzMDUxNjE5MjgwM1owSzELMAkGA1UEBhMCQ0ExCzAJBgNVBAgMAk9OMQswCQYD
VQQHDAJUTzEQMA4GA1UECgwHUElWIE9yZzEQMA4GA1UEAwwHUElWIE9yZzCCASIw
DQYJKoZIhvcNAQEBBQADggEPADCCAQoCggEBAKt7Uh75MR1XWcwYPh5yyIArLnsz
hIUx81HTtqc+s5/1trP5Sy2wE7BAct3THZre8qX31x0y4aIiYrMLMczgMkwtOIR/
SSbPfmh0P+c4ck+sIn9Q6M46lJ44XCKzNMxJn3WjTSLGcbwsZOUe/MT0Ogs5En9N
wDH1PnLw/2hD5L2xKtPvDjaVW2bcYBCRaSW+uaMJpOZiwAbCmrHDicwIXYGpgfUk
FexHb379bBy6Qy36AjLJcJiTsvG05TsUGyFj8l4XFJUeQbviU4zWK2xBS9M5UL0b
4iM9aoDE3hjvRC03tuusGOVxTt/BPlwLrNdnqq5y2bdqEx3b23TwkxVgOGUCAwEA
AaOB+zCB+DAdBgNVHQ4EFgQU1WVueELM0A8qCdf7IjtQq8hKREIwHwYDVR0jBBgw
FoAUn650HAKteDwS2kg4P5R/M0EfSewwCQYDVR0TBAIwADALBgNVHQ8EBAMCBaAw
cAYDVR0RBGkwZ6AiBgorBgEEAYI3FAIDoBQMEnBpdi11c2VyLTFAcGl2Lm9yZ4ES
cGl2LXVzZXItMUBwaXYub3Jnhi11cm46dXVpZDowMjlmYmIzNC1lMTdkLTExZWEt
ODdkMC0wMjQyYWMxMzAwMDMwLAYJYIZIAYb4QgENBB8WHU9wZW5TU0wgR2VuZXJh
dGVkIENlcnRpZmljYXRlMA0GCSqGSIb3DQEBCwUAA4IBAQCcZZGw40EG8jT+H7CC
TUKV9jormCcghkLhkdsEHhkOM7Q1doHOd6pv8l4kiAFQkq4tiXyWOQYGRPNy3Y+x
K34R53io5i8gjRgLBhrxKQFfW5wNFa9a6/rPMEvDOfUD1BH3BaizXBMxcUsgwzd8
D/xx9+M+LiTuJKxng4S0BbJaAX8p9wTFefQwa/w8XrGhh7HicQ3e180wzXmoTLgo
66gIM3sG6iZmncVJq5RkL2B7KjMpj+aCsQLB+YOgmrc6CP0VbaVpvmlAWzjUikWk
uegwL/NReSqpSwyVo5cGCc5fftqyDZ3HEaU5I47/BrvLujgYsddUlOOPFOY6Rrzu
hdyH
-----END CERTIFICATE-----
