Certificate:
    Data:
        Version: 3 (0x2)
        Serial Number: 104 (0x68)
    Signature Algorithm: sha256WithRSAEncryption
        Issuer: C=CA, ST=ON, L=TO, O=PIV Org, OU=PIV Org, CN=piv.org
        Validity
            Not Before: Aug 19 19:54:53 2020 GMT
            Not After : May 16 19:54:53 2023 GMT
        Subject: C=CA, ST=ON, L=TO, O=PIV Org, CN=PIV Org
        Subject Public Key Info:
            Public Key Algorithm: rsaEncryption
                Public-Key: (2048 bit)
                Modulus:
                    00:ab:7b:52:1e:f9:31:1d:57:59:cc:18:3e:1e:72:
                    c8:80:2b:2e:7b:33:84:85:31:f3:51:d3:b6:a7:3e:
                    b3:9f:f5:b6:b3:f9:4b:2d:b0:13:b0:40:72:dd:d3:
                    1d:9a:de:f2:a5:f7:d7:1d:32:e1:a2:22:62:b3:0b:
                    31:cc:e0:32:4c:2d:38:84:7f:49:26:cf:7e:68:74:
                    3f:e7:38:72:4f:ac:22:7f:50:e8:ce:3a:94:9e:38:
                    5c:22:b3:34:cc:49:9f:75:a3:4d:22:c6:71:bc:2c:
                    64:e5:1e:fc:c4:f4:3a:0b:39:12:7f:4d:c0:31:f5:
                    3e:72:f0:ff:68:43:e4:bd:b1:2a:d3:ef:0e:36:95:
                    5b:66:dc:60:10:91:69:25:be:b9:a3:09:a4:e6:62:
                    c0:06:c2:9a:b1:c3:89:cc:08:5d:81:a9:81:f5:24:
                    15:ec:47:6f:7e:fd:6c:1c:ba:43:2d:fa:02:32:c9:
                    70:98:93:b2:f1:b4:e5:3b:14:1b:21:63:f2:5e:17:
                    14:95:1e:41:bb:e2:53:8c:d6:2b:6c:41:4b:d3:39:
                    50:bd:1b:e2:23:3d:6a:80:c4:de:18:ef:44:2d:37:
                    b6:eb:ac:18:e5:71:4e:df:c1:3e:5c:0b:ac:d7:67:
                    aa:ae:72:d9:b7:6a:13:1d:db:db:74:f0:93:15:60:
                    38:65
                Exponent: 65537 (0x10001)
        X509v3 extensions:
            X509v3 Subject Key Identifier: 
                D5:65:6E:78:42:CC:D0:0F:2A:09:D7:FB:22:3B:50:AB:C8:4A:44:42
            X509v3 Authority Key Identifier: 
                keyid:19:7F:4F:E3:A9:C0:88:EB:13:8E:06:42:A8:A0:B5:5B:FD:9B:96:43

            X509v3 Basic Constraints: 
                CA:FALSE
            X509v3 Key Usage: 
                Digital Signature, Key Encipherment
            X509v3 Subject Alternative Name: 
                othername:<unsupported>, email:piv-user-1@piv.org, URI:urn:uuid:029fbb34-e17d-11ea-87d0-0242ac130003
            Netscape Comment: 
                OpenSSL Generated Certificate
    Signature Algorithm: sha256WithRSAEncryption
         7b:c9:d6:27:4a:61:ee:34:b7:72:16:d5:46:ca:0a:c3:f1:37:
         54:e0:7b:16:e2:05:fb:7b:f6:d7:be:7b:aa:dd:a4:fc:4f:3b:
         b8:dc:69:87:46:5a:0d:fe:8f:24:1e:e2:7a:52:fa:12:60:f6:
         6b:40:3c:74:6d:0c:56:2a:87:ee:ea:35:b5:46:d1:1e:73:8b:
         54:3a:e0:72:75:99:02:2b:f2:ef:b5:75:ad:85:98:ec:ee:30:
         af:28:82:b0:f0:38:8c:be:4b:a3:e5:07:e9:a1:0b:e2:28:f1:
         35:3f:62:37:4c:5e:be:e1:94:ac:cf:1b:a8:32:3e:ce:9f:24:
         0a:bf:42:0e:bb:41:c0:34:c4:09:2b:b1:06:c0:15:dc:03:fc:
         c6:c6:da:b5:9c:0a:8f:cf:05:0f:43:cf:3d:18:9f:cb:14:b6:
         33:0d:f9:4e:49:eb:31:74:6a:4c:cd:a7:e0:ac:da:da:91:21:
         2e:08:57:b6:06:0c:3f:80:1d:68:cc:46:9c:67:99:a0:99:36:
         c9:3c:d5:90:56:f1:56:67:79:5e:a7:1f:ab:e9:39:b6:4a:e7:
         38:e4:e0:ca:e5:10:95:bf:8e:5a:d1:b3:cd:76:fe:0b:24:d6:
         26:3f:2d:07:31:94:8a:5c:7c:ef:8d:98:16:03:87:7d:57:28:
         f6:34:de:3b:e4:a9:ba:40:0d:5e:e6:94:f3:1b:f3:a6:b3:fc:
         c4:dc:08:7e:9c:43:e7:3d:2f:9c:c9:68:22:e4:7c:43:9f:ae:
         ff:88:61:17:73:20:17:7c:56:9a:3b:85:65:1e:55:64:3f:1a:
         3b:3e:94:bf:57:8b:54:e0:8d:1e:3f:7d:87:b6:06:2a:e1:29:
         a2:8e:7d:85:26:b4:2e:3d:bd:26:fd:e2:b8:12:5e:b6:34:35:
         b6:b5:f5:f2:a7:39:be:cc:95:3c:9e:09:d7:47:e7:53:1a:f6:
         3d:f4:00:2a:5d:de:ee:fa:a7:80:98:f1:72:f3:b8:d4:9a:fc:
         76:b0:35:5e:02:c6:30:24:d8:fe:97:e7:76:53:70:74:54:e3:
         0f:45:ed:2c:0e:77:d1:1b:f9:82:b2:f7:3f:db:33:d8:ca:26:
         ea:85:a9:50:d5:dd:03:cb:34:db:5e:74:99:b5:b1:49:37:ef:
         02:11:ae:f4:66:71:4f:7f:3b:b6:00:33:53:9c:45:d8:99:a0:
         35:00:76:db:ca:32:81:16:fd:ef:c3:8a:df:e2:17:0c:ac:db:
         cf:c5:d7:5e:07:af:f5:bc:48:1a:34:27:60:39:6b:e1:2f:88:
         e2:07:f2:a1:37:4b:82:5b:dd:fc:24:79:8f:7f:47:ce:f2:40:
         5f:e7:a7:8f:6f:84:0d:86
-----BEGIN CERTIFICATE-----
MIIFHzCCAwegAwIBAgIBaDANBgkqhkiG9w0BAQsFADBdMQswCQYDVQQGEwJDQTEL
MAkGA1UECAwCT04xCzAJBgNVBAcMAlRPMRAwDgYDVQQKDAdQSVYgT3JnMRAwDgYD
VQQLDAdQSVYgT3JnMRAwDgYDVQQDDAdwaXYub3JnMB4XDTIwMDgxOTE5NTQ1M1oX
DTIzMDUxNjE5NTQ1M1owSzELMAkGA1UEBhMCQ0ExCzAJBgNVBAgMAk9OMQswCQYD
VQQHDAJUTzEQMA4GA1UECgwHUElWIE9yZzEQMA4GA1UEAwwHUElWIE9yZzCCASIw
DQYJKoZIhvcNAQEBBQADggEPADCCAQoCggEBAKt7Uh75MR1XWcwYPh5yyIArLnsz
hIUx81HTtqc+s5/1trP5Sy2wE7BAct3THZre8qX31x0y4aIiYrMLMczgMkwtOIR/
SSbPfmh0P+c4ck+sIn9Q6M46lJ44XCKzNMxJn3WjTSLGcbwsZOUe/MT0Ogs5En9N
wDH1PnLw/2hD5L2xKtPvDjaVW2bcYBCRaSW+uaMJpOZiwAbCmrHDicwIXYGpgfUk
FexHb379bBy6Qy36AjLJcJiTsvG05TsUGyFj8l4XFJUeQbviU4zWK2xBS9M5UL0b
4iM9aoDE3hjvRC03tuusGOVxTt/BPlwLrNdnqq5y2bdqEx3b23TwkxVgOGUCAwEA
AaOB+zCB+DAdBgNVHQ4EFgQU1WVueELM0A8qCdf7IjtQq8hKREIwHwYDVR0jBBgw
FoAUGX9P46nAiOsTjgZCqKC1W/2blkMwCQYDVR0TBAIwADALBgNVHQ8EBAMCBaAw
cAYDVR0RBGkwZ6AiBgorBgEEAYI3FAIDoBQMEnBpdi11c2VyLTFAcGl2Lm9yZ4ES
cGl2LXVzZXItMUBwaXYub3Jnhi11cm46dXVpZDowMjlmYmIzNC1lMTdkLTExZWEt
ODdkMC0wMjQyYWMxMzAwMDMwLAYJYIZIAYb4QgENBB8WHU9wZW5TU0wgR2VuZXJh
dGVkIENlcnRpZmljYXRlMA0GCSqGSIb3DQEBCwUAA4ICAQB7ydYnSmHuNLdyFtVG
ygrD8TdU4HsW4gX7e/bXvnuq3aT8Tzu43GmHRloN/o8kHuJ6UvoSYPZrQDx0bQxW
Kofu6jW1RtEec4tUOuBydZkCK/LvtXWthZjs7jCvKIKw8DiMvkuj5QfpoQviKPE1
P2I3TF6+4ZSszxuoMj7OnyQKv0IOu0HANMQJK7EGwBXcA/zGxtq1nAqPzwUPQ889
GJ/LFLYzDflOSesxdGpMzafgrNrakSEuCFe2Bgw/gB1ozEacZ5mgmTbJPNWQVvFW
Z3lepx+r6Tm2Suc45ODK5RCVv45a0bPNdv4LJNYmPy0HMZSKXHzvjZgWA4d9Vyj2
NN475Km6QA1e5pTzG/Oms/zE3Ah+nEPnPS+cyWgi5HxDn67/iGEXcyAXfFaaO4Vl
HlVkPxo7PpS/V4tU4I0eP32HtgYq4Smijn2FJrQuPb0m/eK4El62NDW2tfXypzm+
zJU8ngnXR+dTGvY99AAqXd7u+qeAmPFy87jUmvx2sDVeAsYwJNj+l+d2U3B0VOMP
Re0sDnfRG/mCsvc/2zPYyibqhalQ1d0DyzTbXnSZtbFJN+8CEa70ZnFPfzu2ADNT
nEXYmaA1AHbbyjKBFv3vw4rf4hcMrNvPxddeB6/1vEgaNCdgOWvhL4jiB/KhN0uC
W938JHmPf0fO8kBf56ePb4QNhg==
-----END CERTIFICATE-----
