Certificate:
    Data:
        Version: 3 (0x2)
        Serial Number: 105 (0x69)
    Signature Algorithm: sha256WithRSAEncryption
        Issuer: C=CA, ST=ON, L=TO, O=PIV Org, OU=PIV Org, CN=piv.org
        Validity
            Not Before: Aug 19 20:05:51 2020 GMT
            Not After : May 16 20:05:51 2023 GMT
        Subject: C=CA, ST=ON, L=TO, O=PIV Org, CN=PIV Org
        Subject Public Key Info:
            Public Key Algorithm: rsaEncryption
                Public-Key: (2048 bit)
                Modulus:
                    00:ab:7b:52:1e:f9:31:1d:57:59:cc:18:3e:1e:72:
                    c8:80:2b:2e:7b:33:84:85:31:f3:51:d3:b6:a7:3e:
                    b3:9f:f5:b6:b3:f9:4b:2d:b0:13:b0:40:72:dd:d3:
                    1d:9a:de:f2:a5:f7:d7:1d:32:e1:a2:22:62:b3:0b:
                    31:cc:e0:32:4c:2d:38:84:7f:49:26:cf:7e:68:74:
                    3f:e7:38:72:4f:ac:22:7f:50:e8:ce:3a:94:9e:38:
                    5c:22:b3:34:cc:49:9f:75:a3:4d:22:c6:71:bc:2c:
                    64:e5:1e:fc:c4:f4:3a:0b:39:12:7f:4d:c0:31:f5:
                    3e:72:f0:ff:68:43:e4:bd:b1:2a:d3:ef:0e:36:95:
                    5b:66:dc:60:10:91:69:25:be:b9:a3:09:a4:e6:62:
                    c0:06:c2:9a:b1:c3:89:cc:08:5d:81:a9:81:f5:24:
                    15:ec:47:6f:7e:fd:6c:1c:ba:43:2d:fa:02:32:c9:
                    70:98:93:b2:f1:b4:e5:3b:14:1b:21:63:f2:5e:17:
                    14:95:1e:41:bb:e2:53:8c:d6:2b:6c:41:4b:d3:39:
                    50:bd:1b:e2:23:3d:6a:80:c4:de:18:ef:44:2d:37:
                    b6:eb:ac:18:e5:71:4e:df:c1:3e:5c:0b:ac:d7:67:
                    aa:ae:72:d9:b7:6a:13:1d:db:db:74:f0:93:15:60:
                    38:65
                Exponent: 65537 (0x10001)
        X509v3 extensions:
            X509v3 Subject Key Identifier: 
                D5:65:6E:78:42:CC:D0:0F:2A:09:D7:FB:22:3B:50:AB:C8:4A:44:42
            X509v3 Authority Key Identifier: 
                keyid:19:7F:4F:E3:A9:C0:88:EB:13:8E:06:42:A8:A0:B5:5B:FD:9B:96:43

            X509v3 Basic Constraints: 
                CA:FALSE
            X509v3 Key Usage: 
                Digital Signature, Key Encipherment
            X509v3 CRL Distribution Points: 

                Full Name:
                  URI:https://github.com/rabisankarsahu-okta/crl/raw/master/test-x509-auth-idp-two-level-intermediate-ca2.crl

            X509v3 Subject Alternative Name: 
                othername:<unsupported>, email:piv-user-1@piv.org, URI:urn:uuid:029fbb34-e17d-11ea-87d0-0242ac130003
            Netscape Comment: 
                OpenSSL Generated Certificate
    Signature Algorithm: sha256WithRSAEncryption
         81:3e:11:af:84:68:83:4d:7b:1e:d1:0c:7c:fc:cb:cc:5e:48:
         62:e8:b6:7c:d9:59:db:62:d3:2f:44:cf:fc:ae:50:6a:36:ad:
         9b:45:d0:42:4f:23:09:26:7a:32:19:a9:e2:0d:12:41:c9:f1:
         fb:e6:36:f9:85:33:5a:3b:d4:aa:5d:50:07:fc:65:53:f8:fa:
         19:f1:1c:c8:98:7d:51:e8:f6:82:c6:54:be:bb:2b:aa:2c:a4:
         a6:da:88:4e:ed:43:7b:77:f1:9c:73:aa:db:62:1c:42:d0:74:
         79:27:e7:ad:a2:8c:25:f5:ba:5e:cc:6f:7d:71:b9:97:3c:8c:
         ea:85:5f:a1:0a:9b:73:5c:4b:a7:d5:8f:80:59:70:3b:fa:fd:
         d9:3f:b7:fd:26:81:b0:8d:e7:26:8d:37:e2:8b:84:5c:b0:7d:
         ce:38:78:67:fa:65:40:7e:c1:be:67:05:f0:cd:60:b3:55:95:
         6f:9b:22:96:d6:18:0c:cb:14:58:d9:ee:49:3c:d1:cc:fe:84:
         4e:f7:be:3b:f9:15:4c:35:29:3f:eb:cf:e4:ad:c2:4f:f6:cd:
         9d:18:f1:1f:0b:cf:e3:53:ca:e2:33:c4:68:59:c8:90:84:b9:
         3e:e8:62:56:07:22:58:b0:dc:59:d1:4a:7b:3b:19:60:52:52:
         83:42:69:e8:09:a0:ff:1a:3a:a9:f7:fc:d0:4b:71:ba:3d:d3:
         12:aa:45:a5:a5:51:1b:30:fa:80:1a:c9:3a:1f:bc:53:90:cb:
         1f:9e:9c:63:02:b3:9b:a3:13:09:df:0a:9b:05:c4:fa:3d:d4:
         f5:8c:da:be:fb:05:b3:92:02:14:e0:a1:7f:7a:4d:d6:e2:ae:
         b2:dd:fb:8c:54:14:b0:55:c0:56:75:d0:b3:c5:6f:a8:a0:b1:
         2c:58:33:0c:fb:f1:7e:82:ea:2f:09:22:10:04:e2:b6:39:c6:
         b1:aa:ab:b1:ca:06:53:5d:fb:2f:68:ca:e7:5d:d5:9a:de:2f:
         8b:ce:58:5a:82:83:4e:9e:9f:a4:e4:ff:09:e0:b7:34:d4:53:
         f2:e3:6e:1d:cf:f8:44:bc:55:a5:53:fc:62:2f:ad:ad:ca:84:
         1e:46:b7:95:2c:9b:7c:14:55:f6:95:a0:b1:22:62:ca:6b:c1:
         6a:33:24:39:ba:08:1e:32:ca:03:3d:1d:65:20:65:52:ec:1c:
         8a:68:33:a5:78:17:c6:90:59:4d:cd:f8:9b:a1:d9:56:17:2b:
         11:a9:07:9d:06:c4:f9:cd:5e:27:20:63:fb:70:03:49:b1:8d:
         9e:c7:2d:6e:5f:7a:61:f2:71:92:36:e8:89:76:88:b9:fb:d3:
         c0:cc:86:c4:c1:df:2c:f5
-----BEGIN CERTIFICATE-----
MIIFmzCCA4OgAwIBAgIBaTANBgkqhkiG9w0BAQsFADBdMQswCQYDVQQGEwJDQTEL
MAkGA1UECAwCT04xCzAJBgNVBAcMAlRPMRAwDgYDVQQKDAdQSVYgT3JnMRAwDgYD
VQQLDAdQSVYgT3JnMRAwDgYDVQQDDAdwaXYub3JnMB4XDTIwMDgxOTIwMDU1MVoX
DTIzMDUxNjIwMDU1MVowSzELMAkGA1UEBhMCQ0ExCzAJBgNVBAgMAk9OMQswCQYD
VQQHDAJUTzEQMA4GA1UECgwHUElWIE9yZzEQMA4GA1UEAwwHUElWIE9yZzCCASIw
DQYJKoZIhvcNAQEBBQADggEPADCCAQoCggEBAKt7Uh75MR1XWcwYPh5yyIArLnsz
hIUx81HTtqc+s5/1trP5Sy2wE7BAct3THZre8qX31x0y4aIiYrMLMczgMkwtOIR/
SSbPfmh0P+c4ck+sIn9Q6M46lJ44XCKzNMxJn3WjTSLGcbwsZOUe/MT0Ogs5En9N
wDH1PnLw/2hD5L2xKtPvDjaVW2bcYBCRaSW+uaMJpOZiwAbCmrHDicwIXYGpgfUk
FexHb379bBy6Qy36AjLJcJiTsvG05TsUGyFj8l4XFJUeQbviU4zWK2xBS9M5UL0b
4iM9aoDE3hjvRC03tuusGOVxTt/BPlwLrNdnqq5y2bdqEx3b23TwkxVgOGUCAwEA
AaOCAXYwggFyMB0GA1UdDgQWBBTVZW54QszQDyoJ1/siO1CryEpEQjAfBgNVHSME
GDAWgBQZf0/jqcCI6xOOBkKooLVb/ZuWQzAJBgNVHRMEAjAAMAsGA1UdDwQEAwIF
oDB4BgNVHR8EcTBvMG2ga6BphmdodHRwczovL2dpdGh1Yi5jb20vcmFiaXNhbmth
cnNhaHUtb2t0YS9jcmwvcmF3L21hc3Rlci90ZXN0LXg1MDktYXV0aC1pZHAtdHdv
LWxldmVsLWludGVybWVkaWF0ZS1jYTIuY3JsMHAGA1UdEQRpMGegIgYKKwYBBAGC
NxQCA6AUDBJwaXYtdXNlci0xQHBpdi5vcmeBEnBpdi11c2VyLTFAcGl2Lm9yZ4Yt
dXJuOnV1aWQ6MDI5ZmJiMzQtZTE3ZC0xMWVhLTg3ZDAtMDI0MmFjMTMwMDAzMCwG
CWCGSAGG+EIBDQQfFh1PcGVuU1NMIEdlbmVyYXRlZCBDZXJ0aWZpY2F0ZTANBgkq
hkiG9w0BAQsFAAOCAgEAgT4Rr4Rog017HtEMfPzLzF5IYui2fNlZ22LTL0TP/K5Q
ajatm0XQQk8jCSZ6Mhmp4g0SQcnx++Y2+YUzWjvUql1QB/xlU/j6GfEcyJh9Uej2
gsZUvrsrqiykptqITu1De3fxnHOq22IcQtB0eSfnraKMJfW6XsxvfXG5lzyM6oVf
oQqbc1xLp9WPgFlwO/r92T+3/SaBsI3nJo034ouEXLB9zjh4Z/plQH7BvmcF8M1g
s1WVb5siltYYDMsUWNnuSTzRzP6ETve+O/kVTDUpP+vP5K3CT/bNnRjxHwvP41PK
4jPEaFnIkIS5PuhiVgciWLDcWdFKezsZYFJSg0Jp6Amg/xo6qff80Etxuj3TEqpF
paVRGzD6gBrJOh+8U5DLH56cYwKzm6MTCd8KmwXE+j3U9YzavvsFs5ICFOChf3pN
1uKust37jFQUsFXAVnXQs8VvqKCxLFgzDPvxfoLqLwkiEATitjnGsaqrscoGU137
L2jK513Vmt4vi85YWoKDTp6fpOT/CeC3NNRT8uNuHc/4RLxVpVP8Yi+trcqEHka3
lSybfBRV9pWgsSJiymvBajMkOboIHjLKAz0dZSBlUuwcimgzpXgXxpBZTc34m6HZ
VhcrEakHnQbE+c1eJyBj+3ADSbGNnsctbl96YfJxkjboiXaIufvTwMyGxMHfLPU=
-----END CERTIFICATE-----
