Certificate:
    Data:
        Version: 3 (0x2)
        Serial Number: 106 (0x6a)
    Signature Algorithm: sha256WithRSAEncryption
        Issuer: C=CA, ST=ON, L=TO, O=PIV Org, OU=PIV Org, CN=piv.org
        Validity
            Not Before: Aug 19 21:14:27 2020 GMT
            Not After : May 16 21:14:27 2023 GMT
        Subject: C=CA, ST=ON, L=TO, O=PIV Org, CN=PIV Org
        Subject Public Key Info:
            Public Key Algorithm: rsaEncryption
                Public-Key: (2048 bit)
                Modulus:
                    00:ab:7b:52:1e:f9:31:1d:57:59:cc:18:3e:1e:72:
                    c8:80:2b:2e:7b:33:84:85:31:f3:51:d3:b6:a7:3e:
                    b3:9f:f5:b6:b3:f9:4b:2d:b0:13:b0:40:72:dd:d3:
                    1d:9a:de:f2:a5:f7:d7:1d:32:e1:a2:22:62:b3:0b:
                    31:cc:e0:32:4c:2d:38:84:7f:49:26:cf:7e:68:74:
                    3f:e7:38:72:4f:ac:22:7f:50:e8:ce:3a:94:9e:38:
                    5c:22:b3:34:cc:49:9f:75:a3:4d:22:c6:71:bc:2c:
                    64:e5:1e:fc:c4:f4:3a:0b:39:12:7f:4d:c0:31:f5:
                    3e:72:f0:ff:68:43:e4:bd:b1:2a:d3:ef:0e:36:95:
                    5b:66:dc:60:10:91:69:25:be:b9:a3:09:a4:e6:62:
                    c0:06:c2:9a:b1:c3:89:cc:08:5d:81:a9:81:f5:24:
                    15:ec:47:6f:7e:fd:6c:1c:ba:43:2d:fa:02:32:c9:
                    70:98:93:b2:f1:b4:e5:3b:14:1b:21:63:f2:5e:17:
                    14:95:1e:41:bb:e2:53:8c:d6:2b:6c:41:4b:d3:39:
                    50:bd:1b:e2:23:3d:6a:80:c4:de:18:ef:44:2d:37:
                    b6:eb:ac:18:e5:71:4e:df:c1:3e:5c:0b:ac:d7:67:
                    aa:ae:72:d9:b7:6a:13:1d:db:db:74:f0:93:15:60:
                    38:65
                Exponent: 65537 (0x10001)
        X509v3 extensions:
            X509v3 Subject Key Identifier: 
                D5:65:6E:78:42:CC:D0:0F:2A:09:D7:FB:22:3B:50:AB:C8:4A:44:42
            X509v3 Authority Key Identifier: 
                keyid:F8:D4:71:4C:CF:14:0F:C6:DB:2D:6D:BB:A8:E2:DE:BD:02:1C:F1:BC

            X509v3 Basic Constraints: 
                CA:FALSE
            X509v3 Key Usage: 
                Digital Signature, Key Encipherment
            X509v3 CRL Distribution Points: 

                Full Name:
                  URI:https://github.com/valberbenetz-okta/sample-certificates/raw/master/ca/ca.crl

            X509v3 Subject Alternative Name: 
                othername:<unsupported>, email:piv-user-1@piv.org, URI:urn:uuid:029fbb34-e17d-11ea-87d0-0242ac130003
            Netscape Comment: 
                OpenSSL Generated Certificate
    Signature Algorithm: sha256WithRSAEncryption
         2e:8f:b8:39:26:6f:b3:57:83:08:e8:a0:3c:74:61:20:25:a0:
         51:15:f9:cb:8d:db:3d:20:08:71:5c:74:ac:27:0a:7e:a6:69:
         ef:4f:58:eb:eb:5f:2d:b9:c9:26:d0:cd:87:84:fd:97:40:64:
         ce:50:99:0c:63:45:53:f8:f0:d8:4c:57:67:90:b1:a4:6e:c6:
         db:da:68:30:df:c8:5e:43:96:06:eb:40:b5:aa:8e:c1:93:e6:
         0a:65:65:99:0d:16:b0:6a:f8:d1:40:e0:98:f1:40:6a:91:04:
         e6:40:b6:05:5e:6d:26:4d:65:e7:a1:b5:28:42:63:7d:94:8c:
         41:81:f7:1f:a1:9c:ea:63:14:5f:13:40:d4:73:f3:71:91:f8:
         28:36:4d:b4:ba:33:5d:77:dc:fe:f1:d3:81:55:0b:96:52:08:
         53:e2:f3:27:53:23:3a:05:19:76:58:58:d5:37:0e:ca:3b:8d:
         00:d4:53:9f:59:68:b5:97:74:b8:78:71:9e:88:5c:19:1f:eb:
         83:95:de:b8:f0:5e:4d:67:e7:93:c2:35:61:4b:28:ee:d1:46:
         7b:89:aa:de:d1:ab:a3:71:37:87:0b:e2:ea:d0:46:4f:15:70:
         79:f3:58:fb:e6:ee:36:15:28:df:f9:00:95:ae:76:80:be:44:
         27:87:93:e2
-----BEGIN CERTIFICATE-----
MIIEgTCCA2mgAwIBAgIBajANBgkqhkiG9w0BAQsFADBdMQswCQYDVQQGEwJDQTEL
MAkGA1UECAwCT04xCzAJBgNVBAcMAlRPMRAwDgYDVQQKDAdQSVYgT3JnMRAwDgYD
VQQLDAdQSVYgT3JnMRAwDgYDVQQDDAdwaXYub3JnMB4XDTIwMDgxOTIxMTQyN1oX
DTIzMDUxNjIxMTQyN1owSzELMAkGA1UEBhMCQ0ExCzAJBgNVBAgMAk9OMQswCQYD
VQQHDAJUTzEQMA4GA1UECgwHUElWIE9yZzEQMA4GA1UEAwwHUElWIE9yZzCCASIw
DQYJKoZIhvcNAQEBBQADggEPADCCAQoCggEBAKt7Uh75MR1XWcwYPh5yyIArLnsz
hIUx81HTtqc+s5/1trP5Sy2wE7BAct3THZre8qX31x0y4aIiYrMLMczgMkwtOIR/
SSbPfmh0P+c4ck+sIn9Q6M46lJ44XCKzNMxJn3WjTSLGcbwsZOUe/MT0Ogs5En9N
wDH1PnLw/2hD5L2xKtPvDjaVW2bcYBCRaSW+uaMJpOZiwAbCmrHDicwIXYGpgfUk
FexHb379bBy6Qy36AjLJcJiTsvG05TsUGyFj8l4XFJUeQbviU4zWK2xBS9M5UL0b
4iM9aoDE3hjvRC03tuusGOVxTt/BPlwLrNdnqq5y2bdqEx3b23TwkxVgOGUCAwEA
AaOCAVwwggFYMB0GA1UdDgQWBBTVZW54QszQDyoJ1/siO1CryEpEQjAfBgNVHSME
GDAWgBT41HFMzxQPxtstbbuo4t69AhzxvDAJBgNVHRMEAjAAMAsGA1UdDwQEAwIF
oDBeBgNVHR8EVzBVMFOgUaBPhk1odHRwczovL2dpdGh1Yi5jb20vdmFsYmVyYmVu
ZXR6LW9rdGEvc2FtcGxlLWNlcnRpZmljYXRlcy9yYXcvbWFzdGVyL2NhL2NhLmNy
bDBwBgNVHREEaTBnoCIGCisGAQQBgjcUAgOgFAwScGl2LXVzZXItMUBwaXYub3Jn
gRJwaXYtdXNlci0xQHBpdi5vcmeGLXVybjp1dWlkOjAyOWZiYjM0LWUxN2QtMTFl
YS04N2QwLTAyNDJhYzEzMDAwMzAsBglghkgBhvhCAQ0EHxYdT3BlblNTTCBHZW5l
cmF0ZWQgQ2VydGlmaWNhdGUwDQYJKoZIhvcNAQELBQADggEBAC6PuDkmb7NXgwjo
oDx0YSAloFEV+cuN2z0gCHFcdKwnCn6mae9PWOvrXy25ySbQzYeE/ZdAZM5QmQxj
RVP48NhMV2eQsaRuxtvaaDDfyF5DlgbrQLWqjsGT5gplZZkNFrBq+NFA4JjxQGqR
BOZAtgVebSZNZeehtShCY32UjEGB9x+hnOpjFF8TQNRz83GR+Cg2TbS6M1133P7x
04FVC5ZSCFPi8ydTIzoFGXZYWNU3Dso7jQDUU59ZaLWXdLh4cZ6IXBkf64OV3rjw
Xk1n55PCNWFLKO7RRnuJqt7Rq6NxN4cL4urQRk8VcHnzWPvm7jYVKN/5AJWudoC+
RCeHk+I=
-----END CERTIFICATE-----
