Certificate:
    Data:
        Version: 3 (0x2)
        Serial Number: 107 (0x6b)
    Signature Algorithm: sha256WithRSAEncryption
        Issuer: C=CA, ST=ON, L=TO, O=PIV Org, OU=PIV Org, CN=ca-int.piv.org
        Validity
            Not Before: Aug 19 22:16:21 2020 GMT
            Not After : May 16 22:16:21 2023 GMT
        Subject: C=CA, ST=ON, L=TO, O=PIV Org, CN=PIV Org
        Subject Public Key Info:
            Public Key Algorithm: rsaEncryption
                Public-Key: (2048 bit)
                Modulus:
                    00:ab:7b:52:1e:f9:31:1d:57:59:cc:18:3e:1e:72:
                    c8:80:2b:2e:7b:33:84:85:31:f3:51:d3:b6:a7:3e:
                    b3:9f:f5:b6:b3:f9:4b:2d:b0:13:b0:40:72:dd:d3:
                    1d:9a:de:f2:a5:f7:d7:1d:32:e1:a2:22:62:b3:0b:
                    31:cc:e0:32:4c:2d:38:84:7f:49:26:cf:7e:68:74:
                    3f:e7:38:72:4f:ac:22:7f:50:e8:ce:3a:94:9e:38:
                    5c:22:b3:34:cc:49:9f:75:a3:4d:22:c6:71:bc:2c:
                    64:e5:1e:fc:c4:f4:3a:0b:39:12:7f:4d:c0:31:f5:
                    3e:72:f0:ff:68:43:e4:bd:b1:2a:d3:ef:0e:36:95:
                    5b:66:dc:60:10:91:69:25:be:b9:a3:09:a4:e6:62:
                    c0:06:c2:9a:b1:c3:89:cc:08:5d:81:a9:81:f5:24:
                    15:ec:47:6f:7e:fd:6c:1c:ba:43:2d:fa:02:32:c9:
                    70:98:93:b2:f1:b4:e5:3b:14:1b:21:63:f2:5e:17:
                    14:95:1e:41:bb:e2:53:8c:d6:2b:6c:41:4b:d3:39:
                    50:bd:1b:e2:23:3d:6a:80:c4:de:18:ef:44:2d:37:
                    b6:eb:ac:18:e5:71:4e:df:c1:3e:5c:0b:ac:d7:67:
                    aa:ae:72:d9:b7:6a:13:1d:db:db:74:f0:93:15:60:
                    38:65
                Exponent: 65537 (0x10001)
        X509v3 extensions:
            X509v3 Subject Key Identifier: 
                D5:65:6E:78:42:CC:D0:0F:2A:09:D7:FB:22:3B:50:AB:C8:4A:44:42
            X509v3 Authority Key Identifier: 
                keyid:4A:14:B1:AA:AE:22:3D:BC:95:37:15:FF:CE:78:02:BC:CA:00:F9:46

            X509v3 Basic Constraints: 
                CA:FALSE
            X509v3 Key Usage: 
                Digital Signature, Key Encipherment
            X509v3 CRL Distribution Points: 

                Full Name:
                  URI:https://github.com/valberbenetz-okta/sample-certificates/raw/master/ca/ca.crl

            X509v3 Subject Alternative Name: 
                othername:<unsupported>, email:piv-user-1@piv.org, URI:urn:uuid:029fbb34-e17d-11ea-87d0-0242ac130003
            Netscape Comment: 
                OpenSSL Generated Certificate
    Signature Algorithm: sha256WithRSAEncryption
         af:c8:44:f2:fd:c6:9d:c3:24:bd:c0:93:dd:7f:cd:57:13:99:
         1a:25:a4:72:bb:6b:8a:80:6e:8e:f1:78:5b:eb:3c:d1:49:24:
         1d:99:68:5a:06:ec:2c:4e:49:31:40:e4:3d:13:86:48:a5:75:
         1a:7f:4e:e1:f7:50:b8:64:df:8e:9f:be:91:3b:2b:4f:c3:19:
         7d:fb:e5:dd:c0:65:07:2e:dd:8e:49:a2:f0:45:a7:47:a0:a2:
         2b:b4:54:de:4d:a1:65:db:5f:56:9a:bd:fe:19:4e:c0:9e:a4:
         ac:89:cb:d6:83:b8:c1:09:24:c2:c3:15:56:e7:04:0e:b5:28:
         f6:5e:de:35:7d:ae:9f:ef:1c:3d:23:a8:88:a0:b4:20:0c:f9:
         c7:d1:68:8e:df:a5:a5:2a:58:a9:52:92:48:03:02:79:0f:f1:
         99:fc:4a:b8:38:55:21:1f:b6:e4:bb:92:6a:84:3c:b3:73:3a:
         70:8c:ca:49:4b:b6:96:3c:bd:60:77:3b:2d:db:ec:2f:d4:d8:
         62:20:a5:92:f5:b5:65:58:e2:6a:74:f3:f2:42:b4:dc:01:99:
         82:5e:39:26:21:27:8b:8e:85:99:dc:41:a7:1d:e5:38:b6:22:
         7c:f0:42:23:5a:e1:42:07:a8:44:bd:c8:28:dc:78:b6:cf:15:
         49:6d:0a:e3:69:46:6e:bb:12:82:b7:09:bb:a8:06:ca:54:7e:
         81:de:b9:1f:8c:2e:9c:a0:07:a7:49:05:eb:1e:cb:31:e1:98:
         f9:02:a6:8c:35:01:82:95:9a:7d:60:e1:9a:10:69:3f:9d:f4:
         f7:d1:bb:f9:b7:44:e9:cb:60:e9:b1:c6:5f:e3:21:98:08:87:
         d2:ab:4f:be:0e:14:d8:5c:bb:20:00:c3:1b:aa:c9:05:d4:13:
         19:38:9a:3f:f7:1e:69:00:b8:db:60:9d:98:0d:f8:8b:ab:cf:
         c3:1b:7b:8d:6c:7b:b9:d1:41:0b:5e:fa:95:62:ca:8d:17:ad:
         1a:8c:4d:49:53:7c:bf:3c:e8:75:b0:c9:47:fc:f9:9e:ef:22:
         4b:44:43:fb:a3:02:5d:b9:9c:fb:d9:ee:5b:3c:07:6b:8b:7c:
         cd:d5:2c:5c:26:51:1b:ea:c8:cf:df:e1:b6:07:c4:8d:5a:39:
         62:40:88:7c:3c:d4:e4:81:60:38:46:97:e1:c2:e0:e1:e4:20:
         c5:d3:9c:a9:33:5d:d4:1c:04:50:08:c8:16:91:0e:6a:85:4a:
         33:d2:f9:c3:16:53:ea:21:93:7a:90:59:d0:4c:55:4c:3c:c4:
         a1:d8:5d:34:e1:49:2e:80:37:ca:e4:02:9e:d0:c6:fe:bd:ed:
         42:f2:81:1a:ce:91:9a:33
-----BEGIN CERTIFICATE-----
MIIFiDCCA3CgAwIBAgIBazANBgkqhkiG9w0BAQsFADBkMQswCQYDVQQGEwJDQTEL
MAkGA1UECAwCT04xCzAJBgNVBAcMAlRPMRAwDgYDVQQKDAdQSVYgT3JnMRAwDgYD
VQQLDAdQSVYgT3JnMRcwFQYDVQQDDA5jYS1pbnQucGl2Lm9yZzAeFw0yMDA4MTky
MjE2MjFaFw0yMzA1MTYyMjE2MjFaMEsxCzAJBgNVBAYTAkNBMQswCQYDVQQIDAJP
TjELMAkGA1UEBwwCVE8xEDAOBgNVBAoMB1BJViBPcmcxEDAOBgNVBAMMB1BJViBP
cmcwggEiMA0GCSqGSIb3DQEBAQUAA4IBDwAwggEKAoIBAQCre1Ie+TEdV1nMGD4e
csiAKy57M4SFMfNR07anPrOf9baz+UstsBOwQHLd0x2a3vKl99cdMuGiImKzCzHM
4DJMLTiEf0kmz35odD/nOHJPrCJ/UOjOOpSeOFwiszTMSZ91o00ixnG8LGTlHvzE
9DoLORJ/TcAx9T5y8P9oQ+S9sSrT7w42lVtm3GAQkWklvrmjCaTmYsAGwpqxw4nM
CF2BqYH1JBXsR29+/WwcukMt+gIyyXCYk7LxtOU7FBshY/JeFxSVHkG74lOM1its
QUvTOVC9G+IjPWqAxN4Y70QtN7brrBjlcU7fwT5cC6zXZ6quctm3ahMd29t08JMV
YDhlAgMBAAGjggFcMIIBWDAdBgNVHQ4EFgQU1WVueELM0A8qCdf7IjtQq8hKREIw
HwYDVR0jBBgwFoAUShSxqq4iPbyVNxX/zngCvMoA+UYwCQYDVR0TBAIwADALBgNV
HQ8EBAMCBaAwXgYDVR0fBFcwVTBToFGgT4ZNaHR0cHM6Ly9naXRodWIuY29tL3Zh
bGJlcmJlbmV0ei1va3RhL3NhbXBsZS1jZXJ0aWZpY2F0ZXMvcmF3L21hc3Rlci9j
YS9jYS5jcmwwcAYDVR0RBGkwZ6AiBgorBgEEAYI3FAIDoBQMEnBpdi11c2VyLTFA
cGl2Lm9yZ4EScGl2LXVzZXItMUBwaXYub3Jnhi11cm46dXVpZDowMjlmYmIzNC1l
MTdkLTExZWEtODdkMC0wMjQyYWMxMzAwMDMwLAYJYIZIAYb4QgENBB8WHU9wZW5T
U0wgR2VuZXJhdGVkIENlcnRpZmljYXRlMA0GCSqGSIb3DQEBCwUAA4ICAQCvyETy
/cadwyS9wJPdf81XE5kaJaRyu2uKgG6O8Xhb6zzRSSQdmWhaBuwsTkkxQOQ9E4ZI
pXUaf07h91C4ZN+On76ROytPwxl9++XdwGUHLt2OSaLwRadHoKIrtFTeTaFl219W
mr3+GU7AnqSsicvWg7jBCSTCwxVW5wQOtSj2Xt41fa6f7xw9I6iIoLQgDPnH0WiO
36WlKlipUpJIAwJ5D/GZ/Eq4OFUhH7bku5JqhDyzczpwjMpJS7aWPL1gdzst2+wv
1NhiIKWS9bVlWOJqdPPyQrTcAZmCXjkmISeLjoWZ3EGnHeU4tiJ88EIjWuFCB6hE
vcgo3Hi2zxVJbQrjaUZuuxKCtwm7qAbKVH6B3rkfjC6coAenSQXrHssx4Zj5AqaM
NQGClZp9YOGaEGk/nfT30bv5t0Tpy2DpscZf4yGYCIfSq0++DhTYXLsgAMMbqskF
1BMZOJo/9x5pALjbYJ2YDfiLq8/DG3uNbHu50UELXvqVYsqNF60ajE1JU3y/POh1
sMlH/Pme7yJLREP7owJduZz72e5bPAdri3zN1SxcJlEb6sjP3+G2B8SNWjliQIh8
PNTkgWA4RpfhwuDh5CDF05ypM13UHARQCMgWkQ5qhUoz0vnDFlPqIZN6kFnQTFVM
PMSh2F004UkugDfK5AKe0Mb+ve1C8oEazpGaMw==
-----END CERTIFICATE-----
