Certificate:
    Data:
        Version: 3 (0x2)
        Serial Number: 108 (0x6c)
    Signature Algorithm: sha256WithRSAEncryption
        Issuer: C=CA, ST=ON, L=TO, O=PIV Org, OU=PIV Org, CN=ca-int.piv.org
        Validity
            Not Before: Aug 19 22:25:58 2020 GMT
            Not After : May 16 22:25:58 2023 GMT
        Subject: C=CA, ST=ON, L=TO, O=PIV Org, CN=piv-user-1@piv.org
        Subject Public Key Info:
            Public Key Algorithm: rsaEncryption
                Public-Key: (4096 bit)
                Modulus:
                    00:a4:94:20:da:a5:30:ec:52:0a:f4:07:8f:75:ed:
                    a2:85:2b:9d:da:f5:89:f1:e5:cc:2e:7c:28:6b:4c:
                    74:a2:d6:3d:f4:f2:9c:51:69:da:b5:bd:88:f9:68:
                    4c:50:95:45:e3:5f:25:0e:63:d5:de:ad:6b:11:1d:
                    87:da:85:aa:c4:21:d9:da:e8:2c:87:95:4b:aa:54:
                    9e:96:7e:1d:40:42:19:9d:85:42:91:db:a6:7e:b2:
                    a9:4d:e2:7a:3b:cf:ba:3b:8f:44:80:29:35:68:4a:
                    ec:dd:59:d2:39:7d:67:f5:ce:ab:e9:20:ca:09:5d:
                    94:f9:13:bb:a1:d2:c0:06:8c:ef:98:85:47:f0:78:
                    86:e7:36:2b:60:16:d9:72:8b:75:2b:0c:0d:37:0d:
                    f6:7d:7e:1d:39:7b:66:60:3d:a6:d3:56:5c:e0:89:
                    70:e7:e2:94:fd:fe:13:28:ca:9c:8a:89:ea:b7:fe:
                    d9:0b:b3:45:28:91:c0:19:10:30:55:18:2c:1e:3e:
                    55:8d:fb:a5:04:40:d9:11:12:47:21:2c:88:f7:fc:
                    4f:a8:86:8a:ac:cd:df:b7:bd:2a:1c:08:0a:a2:8d:
                    5e:38:8d:a9:8c:f0:02:31:d7:04:76:19:dc:c7:9e:
                    68:5e:8e:09:40:92:95:fe:e9:44:e6:ef:99:05:9e:
                    1c:b9:39:ec:0e:11:48:4c:b6:e3:54:1f:89:c2:b6:
                    ae:7c:8e:7a:68:67:cf:50:14:62:02:b9:21:cf:82:
                    2f:fb:60:40:4a:a7:55:85:ea:a2:d8:d8:ae:2c:0e:
                    06:9a:fc:47:6c:d3:b4:84:2c:7c:c8:d7:99:7a:12:
                    c3:34:c7:b7:72:10:a8:03:c2:b7:c6:2e:b2:25:0f:
                    a9:80:06:35:6a:64:15:a8:78:5b:de:55:f4:69:c8:
                    2d:45:5f:25:cd:95:d8:aa:a4:13:bc:5c:86:aa:d3:
                    06:28:0e:ee:f2:da:13:ce:c1:81:e7:65:f9:60:2e:
                    c7:f2:ee:57:08:b3:1a:4b:dc:98:47:4d:a2:4a:08:
                    04:2c:a4:04:38:17:44:18:b9:90:6d:37:d2:55:bd:
                    cb:d8:75:33:45:8a:fb:98:48:4d:ee:e1:63:f9:ee:
                    61:f5:22:a5:80:1f:94:77:23:b3:bb:b8:36:74:ea:
                    e6:8d:f3:d7:62:24:9e:43:dd:3d:2e:7d:c1:c3:44:
                    e1:f1:42:54:54:73:34:48:86:8c:86:fa:3c:24:fc:
                    ae:05:1d:90:03:bc:ad:d5:9d:90:dc:a7:d3:0e:72:
                    2a:fe:3c:ee:bb:30:8a:3d:08:2b:0d:43:4f:0c:7d:
                    ef:f7:8b:af:9a:86:40:53:dc:a5:40:8d:c7:b0:c0:
                    a8:ba:19
                Exponent: 65537 (0x10001)
        X509v3 extensions:
            X509v3 Subject Key Identifier: 
                C6:51:F1:87:F9:96:22:70:21:F5:F4:6C:A1:34:9B:82:71:83:BB:6A
            X509v3 Authority Key Identifier: 
                keyid:4A:14:B1:AA:AE:22:3D:BC:95:37:15:FF:CE:78:02:BC:CA:00:F9:46

            X509v3 Basic Constraints: 
                CA:FALSE
            X509v3 Key Usage: 
                Digital Signature, Key Encipherment
            X509v3 CRL Distribution Points: 

                Full Name:
                  URI:https://github.com/valberbenetz-okta/sample-certificates/raw/master/ca/ca.crl

            X509v3 Subject Alternative Name: 
                othername:<unsupported>, email:piv-user-1@piv.org, URI:urn:uuid:029fbb34-e17d-11ea-87d0-0242ac130003
            Netscape Comment: 
                OpenSSL Generated Certificate
    Signature Algorithm: sha256WithRSAEncryption
         ab:df:ba:3f:2d:59:94:e9:92:f8:53:68:96:7d:84:5b:4f:57:
         86:5f:1f:a9:49:14:e9:f4:4a:31:44:30:29:74:f3:46:ab:c7:
         d0:f8:17:7a:90:3c:7f:2e:88:4b:37:af:57:b0:da:23:14:4f:
         c6:9c:4a:5b:3a:98:ce:4e:18:0d:e5:aa:09:f8:93:93:45:a7:
         c1:d7:f7:1f:31:72:88:0f:b3:9d:07:c5:65:1d:32:07:f4:e7:
         ef:0f:71:39:3a:5d:bf:21:98:5d:67:07:51:bc:ca:25:51:ff:
         41:c2:42:71:87:c9:4f:3f:c4:36:6a:70:c0:ef:28:0b:f1:67:
         14:1c:7a:db:07:a6:ec:af:e2:13:26:90:87:4d:21:9a:b2:cb:
         4e:fc:a6:1d:66:18:e2:34:19:ec:a2:27:92:47:e3:b1:8d:76:
         7e:b4:7f:93:8d:de:76:5b:4a:1a:c5:63:db:32:d9:cf:25:f9:
         4d:e6:d5:4c:0e:86:46:fe:e0:16:44:75:ef:61:d8:74:bd:6d:
         b7:e4:3f:02:30:fd:b8:75:f2:96:45:7b:7d:67:c3:d1:21:99:
         6d:25:26:d5:ff:df:60:41:b8:1c:37:ce:39:07:0e:dc:f6:9b:
         a3:a8:88:ba:80:9e:33:09:1d:86:aa:f3:ca:16:b5:51:fc:23:
         72:1f:c8:94:18:f8:8a:f8:75:c6:bc:c7:12:a1:33:40:8c:2e:
         f3:35:4a:87:b7:77:38:67:9b:eb:71:36:57:f7:1e:8e:6c:2a:
         4d:e6:90:81:bc:78:15:c8:25:4e:42:aa:1c:2b:e8:34:ff:26:
         0f:f1:d2:25:86:06:a8:f1:21:7f:2a:33:94:f2:8a:88:ed:52:
         a5:ff:b7:e7:91:58:eb:86:33:f4:ff:85:14:44:dd:d6:98:1e:
         00:21:9e:3e:0e:c4:d4:6a:66:b2:e3:39:95:4b:91:76:bd:1e:
         7b:93:d1:16:84:ea:c2:c1:4f:22:39:6a:a8:25:3c:c2:2c:aa:
         7b:43:4e:2e:53:34:f4:48:bd:21:d7:88:5f:2b:36:23:2d:dc:
         80:d2:47:2c:13:94:3f:33:50:1b:e0:9d:ac:c0:29:0a:af:de:
         88:33:cf:8c:d8:3d:cc:24:b8:83:91:fe:c5:d2:73:38:4a:58:
         41:e4:19:f1:1b:6f:e5:83:5f:a8:50:cb:81:ea:00:2c:d6:39:
         b7:3b:20:91:cb:03:35:dd:b9:f4:8b:42:0d:91:db:9f:ee:1d:
         0c:5c:b1:37:99:82:c3:4d:28:83:48:d4:df:6b:8f:8f:5e:2a:
         6f:ed:d1:9c:25:88:db:cb:6a:4f:0d:cb:a4:76:9c:b9:6c:02:
         b2:a9:cf:4b:ae:77:3b:48
-----BEGIN CERTIFICATE-----
MIIGkzCCBHugAwIBAgIBbDANBgkqhkiG9w0BAQsFADBkMQswCQYDVQQGEwJDQTEL
MAkGA1UECAwCT04xCzAJBgNVBAcMAlRPMRAwDgYDVQQKDAdQSVYgT3JnMRAwDgYD
VQQLDAdQSVYgT3JnMRcwFQYDVQQDDA5jYS1pbnQucGl2Lm9yZzAeFw0yMDA4MTky
MjI1NThaFw0yMzA1MTYyMjI1NThaMFYxCzAJBgNVBAYTAkNBMQswCQYDVQQIDAJP
TjELMAkGA1UEBwwCVE8xEDAOBgNVBAoMB1BJViBPcmcxGzAZBgNVBAMMEnBpdi11
c2VyLTFAcGl2Lm9yZzCCAiIwDQYJKoZIhvcNAQEBBQADggIPADCCAgoCggIBAKSU
INqlMOxSCvQHj3XtooUrndr1ifHlzC58KGtMdKLWPfTynFFp2rW9iPloTFCVReNf
JQ5j1d6taxEdh9qFqsQh2droLIeVS6pUnpZ+HUBCGZ2FQpHbpn6yqU3iejvPujuP
RIApNWhK7N1Z0jl9Z/XOq+kgygldlPkTu6HSwAaM75iFR/B4huc2K2AW2XKLdSsM
DTcN9n1+HTl7ZmA9ptNWXOCJcOfilP3+EyjKnIqJ6rf+2QuzRSiRwBkQMFUYLB4+
VY37pQRA2RESRyEsiPf8T6iGiqzN37e9KhwICqKNXjiNqYzwAjHXBHYZ3MeeaF6O
CUCSlf7pRObvmQWeHLk57A4RSEy241QficK2rnyOemhnz1AUYgK5Ic+CL/tgQEqn
VYXqotjYriwOBpr8R2zTtIQsfMjXmXoSwzTHt3IQqAPCt8YusiUPqYAGNWpkFah4
W95V9GnILUVfJc2V2KqkE7xchqrTBigO7vLaE87Bgedl+WAux/LuVwizGkvcmEdN
okoIBCykBDgXRBi5kG030lW9y9h1M0WK+5hITe7hY/nuYfUipYAflHcjs7u4NnTq
5o3z12IknkPdPS59wcNE4fFCVFRzNEiGjIb6PCT8rgUdkAO8rdWdkNyn0w5yKv48
7rswij0IKw1DTwx97/eLr5qGQFPcpUCNx7DAqLoZAgMBAAGjggFcMIIBWDAdBgNV
HQ4EFgQUxlHxh/mWInAh9fRsoTSbgnGDu2owHwYDVR0jBBgwFoAUShSxqq4iPbyV
NxX/zngCvMoA+UYwCQYDVR0TBAIwADALBgNVHQ8EBAMCBaAwXgYDVR0fBFcwVTBT
oFGgT4ZNaHR0cHM6Ly9naXRodWIuY29tL3ZhbGJlcmJlbmV0ei1va3RhL3NhbXBs
ZS1jZXJ0aWZpY2F0ZXMvcmF3L21hc3Rlci9jYS9jYS5jcmwwcAYDVR0RBGkwZ6Ai
BgorBgEEAYI3FAIDoBQMEnBpdi11c2VyLTFAcGl2Lm9yZ4EScGl2LXVzZXItMUBw
aXYub3Jnhi11cm46dXVpZDowMjlmYmIzNC1lMTdkLTExZWEtODdkMC0wMjQyYWMx
MzAwMDMwLAYJYIZIAYb4QgENBB8WHU9wZW5TU0wgR2VuZXJhdGVkIENlcnRpZmlj
YXRlMA0GCSqGSIb3DQEBCwUAA4ICAQCr37o/LVmU6ZL4U2iWfYRbT1eGXx+pSRTp
9EoxRDApdPNGq8fQ+Bd6kDx/LohLN69XsNojFE/GnEpbOpjOThgN5aoJ+JOTRafB
1/cfMXKID7OdB8VlHTIH9OfvD3E5Ol2/IZhdZwdRvMolUf9BwkJxh8lPP8Q2anDA
7ygL8WcUHHrbB6bsr+ITJpCHTSGasstO/KYdZhjiNBnsoieSR+OxjXZ+tH+Tjd52
W0oaxWPbMtnPJflN5tVMDoZG/uAWRHXvYdh0vW235D8CMP24dfKWRXt9Z8PRIZlt
JSbV/99gQbgcN845Bw7c9pujqIi6gJ4zCR2GqvPKFrVR/CNyH8iUGPiK+HXGvMcS
oTNAjC7zNUqHt3c4Z5vrcTZX9x6ObCpN5pCBvHgVyCVOQqocK+g0/yYP8dIlhgao
8SF/KjOU8oqI7VKl/7fnkVjrhjP0/4UURN3WmB4AIZ4+DsTUamay4zmVS5F2vR57
k9EWhOrCwU8iOWqoJTzCLKp7Q04uUzT0SL0h14hfKzYjLdyA0kcsE5Q/M1Ab4J2s
wCkKr96IM8+M2D3MJLiDkf7F0nM4SlhB5BnxG2/lg1+oUMuB6gAs1jm3OyCRywM1
3bn0i0INkduf7h0MXLE3mYLDTSiDSNTfa4+PXipv7dGcJYjby2pPDcukdpy5bAKy
qc9Lrnc7SA==
-----END CERTIFICATE-----
