Certificate:
    Data:
        Version: 3 (0x2)
        Serial Number: 109 (0x6d)
    Signature Algorithm: sha256WithRSAEncryption
        Issuer: C=CA, ST=ON, L=TO, O=PIV Org, OU=PIV Org, CN=ca-int.piv.org
        Validity
            Not Before: Aug 19 22:42:36 2020 GMT
            Not After : May 16 22:42:36 2023 GMT
        Subject: C=CA, ST=ON, L=TO, O=PIV Org, CN=piv.org
        Subject Public Key Info:
            Public Key Algorithm: rsaEncryption
                Public-Key: (2048 bit)
                Modulus:
                    00:c3:33:7d:ba:4a:dc:b0:fe:6a:bb:63:fa:3a:40:
                    cb:92:8e:80:8e:81:f3:30:1d:79:ff:c5:70:d4:fd:
                    d3:3b:29:c2:85:9a:cd:c4:74:0a:85:32:e9:91:5c:
                    2f:82:3a:2a:65:3f:bd:57:0e:22:a1:b8:be:a2:61:
                    08:55:fc:8f:de:c9:1a:9d:c7:7c:93:8f:25:b2:8f:
                    e4:af:5c:ad:1e:62:61:5a:55:ab:43:58:83:b8:b8:
                    dc:b8:d4:ad:5e:c9:aa:c8:4b:5a:7e:ed:9a:8f:a7:
                    c2:cf:b2:63:a9:24:c3:f7:ce:3a:d2:4f:e1:56:d1:
                    7a:f5:d8:b4:7f:7c:83:3e:a7:3e:eb:32:8e:83:e9:
                    5a:d8:f1:8f:2a:4e:a9:d9:e7:9c:60:d3:d6:f2:eb:
                    88:16:a5:17:17:f5:42:d5:0a:4d:f7:cd:4c:d0:0d:
                    ff:d6:ca:e0:1f:ef:a3:46:69:9c:c2:f4:15:aa:92:
                    84:00:5e:d0:f7:bf:55:a7:ca:7d:19:30:50:f8:c8:
                    82:cb:db:bf:b4:01:cc:e6:05:fc:8b:52:68:c5:27:
                    d8:8b:85:72:d7:f8:85:7b:5e:4c:27:77:4d:61:3c:
                    7c:98:93:8a:44:8e:85:ba:e1:3b:19:0c:04:e8:98:
                    39:eb:3a:f8:19:7f:fa:49:f4:34:8e:21:d0:9a:17:
                    3d:a7
                Exponent: 65537 (0x10001)
        X509v3 extensions:
            X509v3 Subject Key Identifier: 
                52:03:2A:3C:E2:C4:2F:A5:78:7A:17:F9:5C:63:8B:61:EC:06:E0:CB
            X509v3 Authority Key Identifier: 
                keyid:4A:14:B1:AA:AE:22:3D:BC:95:37:15:FF:CE:78:02:BC:CA:00:F9:46

            X509v3 Basic Constraints: 
                CA:FALSE
            X509v3 Key Usage: 
                Digital Signature, Key Encipherment
            X509v3 CRL Distribution Points: 

                Full Name:
                  URI:https://github.com/valberbenetz-okta/sample-certificates/raw/master/ca/ca.crl

            X509v3 Subject Alternative Name: 
                othername:<unsupported>, email:piv-user-1@piv.org, URI:urn:uuid:029fbb34-e17d-11ea-87d0-0242ac130003
            Netscape Comment: 
                OpenSSL Generated Certificate
    Signature Algorithm: sha256WithRSAEncryption
         7e:2e:2c:ff:7b:72:ad:72:ec:24:02:47:02:2e:39:6b:ed:7e:
         56:9c:49:b2:4d:09:83:68:fc:90:1c:91:1e:b4:64:53:ef:1f:
         b1:f6:5f:5f:3c:ef:9f:3a:9e:77:d2:4d:24:7f:56:ee:cc:60:
         f5:66:2d:26:83:d3:42:92:fe:9c:16:0e:0b:73:b3:89:1f:73:
         67:c9:a0:1b:d7:12:19:13:84:2d:a5:a7:d0:54:c3:ca:4a:58:
         96:d2:e8:86:c6:08:8d:65:70:fd:bc:5f:a9:18:c7:3d:70:84:
         99:34:d4:91:7a:a0:ce:26:d3:a1:d3:34:e6:26:94:b9:96:0c:
         f5:d4:c6:1a:4c:cb:1e:4a:e7:a7:ef:53:14:81:92:95:b7:c1:
         b5:93:08:59:5c:a1:a1:d3:e0:34:c5:77:57:87:32:15:6b:80:
         81:10:4f:d2:7d:4e:fe:54:8a:e7:16:09:5d:55:b8:c2:0d:a9:
         f8:c1:d8:02:e0:42:79:c4:ef:c1:8a:1f:15:9c:80:5b:1e:b8:
         d9:55:28:a0:4d:56:6a:ad:2c:13:20:87:d8:b2:92:56:44:ac:
         4d:1e:f2:2e:ac:23:04:f5:80:a4:47:71:d3:78:27:e3:3a:b6:
         ad:7f:fd:2f:d0:bc:60:e6:4d:b4:90:a6:21:a8:58:48:62:4b:
         fe:7a:29:b1:0a:37:f8:02:c0:cf:44:c4:3d:73:d6:fc:e4:ff:
         ec:ed:fd:c1:76:bb:38:a1:53:cb:01:e9:ff:48:c7:3c:c3:02:
         30:f6:6e:57:09:fc:30:3a:f9:65:30:d8:54:6a:60:b2:98:10:
         ca:f6:33:7d:e8:96:f9:04:56:a5:80:0d:d2:c2:fa:c7:f5:25:
         30:b5:7a:c8:87:5a:66:c4:42:d9:9d:8b:f1:30:e6:fd:87:a4:
         20:3b:44:47:92:20:c6:53:dd:45:32:05:bc:b4:cc:c6:0b:18:
         5f:e6:f0:92:26:55:09:bf:28:a3:74:2b:68:d7:17:23:55:f4:
         60:0c:37:05:ca:9d:ce:f6:96:fe:82:29:78:09:0e:c6:8f:b9:
         11:1d:4b:2e:d9:9d:83:23:0e:8e:29:61:5f:65:3a:a8:e4:ca:
         20:8d:5b:7d:51:b5:b8:7b:fc:84:d5:9e:b9:b8:76:61:c2:55:
         51:d2:9b:05:9d:d6:4b:9f:6f:ed:72:d4:9c:66:27:23:d1:ef:
         e1:bf:53:86:4d:a4:03:a6:65:b8:fd:c7:34:89:11:16:c2:ba:
         c4:54:0d:74:a4:b2:11:ac:9e:56:2e:c0:ad:39:40:11:04:75:
         1b:4f:f8:18:b8:b0:55:fb:3d:88:bd:cc:d3:e7:1a:cf:39:e7:
         8c:6c:10:50:ee:6b:c7:12
-----BEGIN CERTIFICATE-----
MIIFiDCCA3CgAwIBAgIBbTANBgkqhkiG9w0BAQsFADBkMQswCQYDVQQGEwJDQTEL
MAkGA1UECAwCT04xCzAJBgNVBAcMAlRPMRAwDgYDVQQKDAdQSVYgT3JnMRAwDgYD
VQQLDAdQSVYgT3JnMRcwFQYDVQQDDA5jYS1pbnQucGl2Lm9yZzAeFw0yMDA4MTky
MjQyMzZaFw0yMzA1MTYyMjQyMzZaMEsxCzAJBgNVBAYTAkNBMQswCQYDVQQIDAJP
TjELMAkGA1UEBwwCVE8xEDAOBgNVBAoMB1BJViBPcmcxEDAOBgNVBAMMB3Bpdi5v
cmcwggEiMA0GCSqGSIb3DQEBAQUAA4IBDwAwggEKAoIBAQDDM326Styw/mq7Y/o6
QMuSjoCOgfMwHXn/xXDU/dM7KcKFms3EdAqFMumRXC+COiplP71XDiKhuL6iYQhV
/I/eyRqdx3yTjyWyj+SvXK0eYmFaVatDWIO4uNy41K1eyarIS1p+7ZqPp8LPsmOp
JMP3zjrST+FW0Xr12LR/fIM+pz7rMo6D6VrY8Y8qTqnZ55xg09by64gWpRcX9ULV
Ck33zUzQDf/WyuAf76NGaZzC9BWqkoQAXtD3v1Wnyn0ZMFD4yILL27+0AczmBfyL
UmjFJ9iLhXLX+IV7Xkwnd01hPHyYk4pEjoW64TsZDATomDnrOvgZf/pJ9DSOIdCa
Fz2nAgMBAAGjggFcMIIBWDAdBgNVHQ4EFgQUUgMqPOLEL6V4ehf5XGOLYewG4Msw
HwYDVR0jBBgwFoAUShSxqq4iPbyVNxX/zngCvMoA+UYwCQYDVR0TBAIwADALBgNV
HQ8EBAMCBaAwXgYDVR0fBFcwVTBToFGgT4ZNaHR0cHM6Ly9naXRodWIuY29tL3Zh
bGJlcmJlbmV0ei1va3RhL3NhbXBsZS1jZXJ0aWZpY2F0ZXMvcmF3L21hc3Rlci9j
YS9jYS5jcmwwcAYDVR0RBGkwZ6AiBgorBgEEAYI3FAIDoBQMEnBpdi11c2VyLTFA
cGl2Lm9yZ4EScGl2LXVzZXItMUBwaXYub3Jnhi11cm46dXVpZDowMjlmYmIzNC1l
MTdkLTExZWEtODdkMC0wMjQyYWMxMzAwMDMwLAYJYIZIAYb4QgENBB8WHU9wZW5T
U0wgR2VuZXJhdGVkIENlcnRpZmljYXRlMA0GCSqGSIb3DQEBCwUAA4ICAQB+Liz/
e3KtcuwkAkcCLjlr7X5WnEmyTQmDaPyQHJEetGRT7x+x9l9fPO+fOp530k0kf1bu
zGD1Zi0mg9NCkv6cFg4Lc7OJH3NnyaAb1xIZE4QtpafQVMPKSliW0uiGxgiNZXD9
vF+pGMc9cISZNNSReqDOJtOh0zTmJpS5lgz11MYaTMseSuen71MUgZKVt8G1kwhZ
XKGh0+A0xXdXhzIVa4CBEE/SfU7+VIrnFgldVbjCDan4wdgC4EJ5xO/Bih8VnIBb
HrjZVSigTVZqrSwTIIfYspJWRKxNHvIurCME9YCkR3HTeCfjOratf/0v0Lxg5k20
kKYhqFhIYkv+eimxCjf4AsDPRMQ9c9b85P/s7f3Bdrs4oVPLAen/SMc8wwIw9m5X
CfwwOvllMNhUamCymBDK9jN96Jb5BFalgA3SwvrH9SUwtXrIh1pmxELZnYvxMOb9
h6QgO0RHkiDGU91FMgW8tMzGCxhf5vCSJlUJvyijdCto1xcjVfRgDDcFyp3O9pb+
gil4CQ7Gj7kRHUsu2Z2DIw6OKWFfZTqo5MogjVt9UbW4e/yE1Z65uHZhwlVR0psF
ndZLn2/tctScZicj0e/hv1OGTaQDpmW4/cc0iREWwrrEVA10pLIRrJ5WLsCtOUAR
BHUbT/gYuLBV+z2IvczT5xrPOeeMbBBQ7mvHEg==
-----END CERTIFICATE-----
