Certificate:
    Data:
        Version: 3 (0x2)
        Serial Number: 110 (0x6e)
    Signature Algorithm: sha256WithRSAEncryption
        Issuer: C=CA, ST=ON, L=TO, O=PIV Org, OU=PIV Org, CN=ca-int.piv.org
        Validity
            Not Before: Aug 20 15:39:50 2020 GMT
            Not After : May 17 15:39:50 2023 GMT
        Subject: C=CA, ST=ON, L=TO, O=PIV Org, CN=piv.org
        Subject Public Key Info:
            Public Key Algorithm: rsaEncryption
                Public-Key: (2048 bit)
                Modulus:
                    00:c3:33:7d:ba:4a:dc:b0:fe:6a:bb:63:fa:3a:40:
                    cb:92:8e:80:8e:81:f3:30:1d:79:ff:c5:70:d4:fd:
                    d3:3b:29:c2:85:9a:cd:c4:74:0a:85:32:e9:91:5c:
                    2f:82:3a:2a:65:3f:bd:57:0e:22:a1:b8:be:a2:61:
                    08:55:fc:8f:de:c9:1a:9d:c7:7c:93:8f:25:b2:8f:
                    e4:af:5c:ad:1e:62:61:5a:55:ab:43:58:83:b8:b8:
                    dc:b8:d4:ad:5e:c9:aa:c8:4b:5a:7e:ed:9a:8f:a7:
                    c2:cf:b2:63:a9:24:c3:f7:ce:3a:d2:4f:e1:56:d1:
                    7a:f5:d8:b4:7f:7c:83:3e:a7:3e:eb:32:8e:83:e9:
                    5a:d8:f1:8f:2a:4e:a9:d9:e7:9c:60:d3:d6:f2:eb:
                    88:16:a5:17:17:f5:42:d5:0a:4d:f7:cd:4c:d0:0d:
                    ff:d6:ca:e0:1f:ef:a3:46:69:9c:c2:f4:15:aa:92:
                    84:00:5e:d0:f7:bf:55:a7:ca:7d:19:30:50:f8:c8:
                    82:cb:db:bf:b4:01:cc:e6:05:fc:8b:52:68:c5:27:
                    d8:8b:85:72:d7:f8:85:7b:5e:4c:27:77:4d:61:3c:
                    7c:98:93:8a:44:8e:85:ba:e1:3b:19:0c:04:e8:98:
                    39:eb:3a:f8:19:7f:fa:49:f4:34:8e:21:d0:9a:17:
                    3d:a7
                Exponent: 65537 (0x10001)
        X509v3 extensions:
            X509v3 Subject Key Identifier: 
                52:03:2A:3C:E2:C4:2F:A5:78:7A:17:F9:5C:63:8B:61:EC:06:E0:CB
            X509v3 Authority Key Identifier: 
                keyid:1F:FE:1A:4C:12:EA:6C:81:79:45:15:5A:91:4B:16:CB:FF:60:D2:7F

            X509v3 Basic Constraints: 
                CA:FALSE
            X509v3 Key Usage: 
                Digital Signature, Key Encipherment
            X509v3 CRL Distribution Points: 

                Full Name:
                  URI:https://github.com/valberbenetz-okta/sample-certificates/raw/master/ca/ca.crl

            X509v3 Subject Alternative Name: 
                othername:<unsupported>, email:piv-user-1@piv.org, URI:urn:uuid:029fbb34-e17d-11ea-87d0-0242ac130003
            Netscape Comment: 
                OpenSSL Generated Certificate
    Signature Algorithm: sha256WithRSAEncryption
         0f:ab:81:39:a9:4d:9f:eb:11:c4:f8:e0:4b:64:de:66:ad:69:
         09:6f:3c:9f:7f:c5:9c:61:02:95:72:ea:58:8f:ec:dc:92:c6:
         05:b9:64:c4:16:cc:74:eb:5f:0e:b4:16:4b:ef:bb:6a:5f:f3:
         fc:d5:70:d1:a2:af:9d:35:48:04:2f:05:0e:44:d8:6a:15:be:
         7b:1a:25:91:57:63:9d:59:b5:37:3f:c6:44:fd:b1:a5:f9:f1:
         ce:6f:35:ac:5d:52:57:94:2d:b9:43:68:4e:ed:e1:1e:ca:4f:
         9a:90:06:1c:94:b9:62:fe:47:51:8e:c8:6d:7c:db:60:75:d2:
         37:31:13:05:68:36:3e:99:00:ec:d5:cc:40:1d:35:73:bf:e5:
         cc:18:71:f8:7e:66:39:99:71:3a:e5:02:f1:79:f9:e2:0a:24:
         3f:f6:8d:07:44:35:e8:10:6d:ce:e0:c6:5f:14:e0:53:c8:ad:
         87:e7:2d:9b:1e:12:11:c1:7c:b1:79:0e:e8:13:55:6d:20:d7:
         b4:c4:d3:e4:54:7d:a0:35:b8:5f:7c:16:15:bf:cc:ec:d6:ed:
         4d:f8:42:f7:94:25:0c:d4:70:71:eb:cb:bc:9a:bf:cf:3c:cc:
         0b:a0:03:96:92:2f:0d:9b:17:5b:a1:9c:ae:3a:55:c8:43:9b:
         33:47:11:d5
-----BEGIN CERTIFICATE-----
MIIEiDCCA3CgAwIBAgIBbjANBgkqhkiG9w0BAQsFADBkMQswCQYDVQQGEwJDQTEL
MAkGA1UECAwCT04xCzAJBgNVBAcMAlRPMRAwDgYDVQQKDAdQSVYgT3JnMRAwDgYD
VQQLDAdQSVYgT3JnMRcwFQYDVQQDDA5jYS1pbnQucGl2Lm9yZzAeFw0yMDA4MjAx
NTM5NTBaFw0yMzA1MTcxNTM5NTBaMEsxCzAJBgNVBAYTAkNBMQswCQYDVQQIDAJP
TjELMAkGA1UEBwwCVE8xEDAOBgNVBAoMB1BJViBPcmcxEDAOBgNVBAMMB3Bpdi5v
cmcwggEiMA0GCSqGSIb3DQEBAQUAA4IBDwAwggEKAoIBAQDDM326Styw/mq7Y/o6
QMuSjoCOgfMwHXn/xXDU/dM7KcKFms3EdAqFMumRXC+COiplP71XDiKhuL6iYQhV
/I/eyRqdx3yTjyWyj+SvXK0eYmFaVatDWIO4uNy41K1eyarIS1p+7ZqPp8LPsmOp
JMP3zjrST+FW0Xr12LR/fIM+pz7rMo6D6VrY8Y8qTqnZ55xg09by64gWpRcX9ULV
Ck33zUzQDf/WyuAf76NGaZzC9BWqkoQAXtD3v1Wnyn0ZMFD4yILL27+0AczmBfyL
UmjFJ9iLhXLX+IV7Xkwnd01hPHyYk4pEjoW64TsZDATomDnrOvgZf/pJ9DSOIdCa
Fz2nAgMBAAGjggFcMIIBWDAdBgNVHQ4EFgQUUgMqPOLEL6V4ehf5XGOLYewG4Msw
HwYDVR0jBBgwFoAUH/4aTBLqbIF5RRVakUsWy/9g0n8wCQYDVR0TBAIwADALBgNV
HQ8EBAMCBaAwXgYDVR0fBFcwVTBToFGgT4ZNaHR0cHM6Ly9naXRodWIuY29tL3Zh
bGJlcmJlbmV0ei1va3RhL3NhbXBsZS1jZXJ0aWZpY2F0ZXMvcmF3L21hc3Rlci9j
YS9jYS5jcmwwcAYDVR0RBGkwZ6AiBgorBgEEAYI3FAIDoBQMEnBpdi11c2VyLTFA
cGl2Lm9yZ4EScGl2LXVzZXItMUBwaXYub3Jnhi11cm46dXVpZDowMjlmYmIzNC1l
MTdkLTExZWEtODdkMC0wMjQyYWMxMzAwMDMwLAYJYIZIAYb4QgENBB8WHU9wZW5T
U0wgR2VuZXJhdGVkIENlcnRpZmljYXRlMA0GCSqGSIb3DQEBCwUAA4IBAQAPq4E5
qU2f6xHE+OBLZN5mrWkJbzyff8WcYQKVcupYj+zcksYFuWTEFsx0618OtBZL77tq
X/P81XDRoq+dNUgELwUORNhqFb57GiWRV2OdWbU3P8ZE/bGl+fHObzWsXVJXlC25
Q2hO7eEeyk+akAYclLli/kdRjshtfNtgddI3MRMFaDY+mQDs1cxAHTVzv+XMGHH4
fmY5mXE65QLxefniCiQ/9o0HRDXoEG3O4MZfFOBTyK2H5y2bHhIRwXyxeQ7oE1Vt
INe0xNPkVH2gNbhffBYVv8zs1u1N+EL3lCUM1HBx68u8mr/PPMwLoAOWki8Nmxdb
oZyuOlXIQ5szRxHV
-----END CERTIFICATE-----
