Certificate:
    Data:
        Version: 3 (0x2)
        Serial Number: 114 (0x72)
    Signature Algorithm: sha256WithRSAEncryption
        Issuer: C=CA, ST=ON, L=TO, O=PIV Org, OU=PIV Org, CN=ca-int.piv.org
        Validity
            Not Before: Aug 21 15:23:49 2020 GMT
            Not After : May 18 15:23:49 2023 GMT
        Subject: C=CA, ST=ON, L=TO, O=Sample Org, CN=example.com
        Subject Public Key Info:
            Public Key Algorithm: rsaEncryption
                Public-Key: (2048 bit)
                Modulus:
                    00:c1:7e:32:eb:60:8f:99:7f:70:9c:72:69:f6:c9:
                    f7:2d:83:60:ed:2c:94:ce:8f:b2:af:32:2d:4c:3e:
                    f5:69:79:b3:dd:c0:55:d5:38:09:bc:08:ea:66:07:
                    72:ad:ec:e5:3a:f5:46:77:4f:dd:ec:46:44:4d:3e:
                    bd:04:6b:60:10:ec:5a:36:e9:d7:6d:8e:98:ef:8a:
                    c5:8e:64:56:4a:01:03:7d:09:97:df:04:8b:4a:5f:
                    0c:ca:3d:89:83:87:bb:a9:e3:8a:d8:79:8f:75:4d:
                    74:ce:5c:88:c1:fd:23:50:6d:d0:69:88:e1:c6:48:
                    6e:f2:34:d1:e9:58:a3:80:e8:6e:27:ef:d1:15:f0:
                    21:0a:08:f1:c6:ff:a4:d7:5f:bd:4b:db:7e:c0:f7:
                    f9:45:0b:a4:1a:31:1d:65:48:1b:db:3d:d4:2f:b2:
                    dd:70:26:b8:a0:95:6a:b8:82:87:2b:31:72:be:70:
                    53:a7:6b:35:f9:c2:84:1b:c3:1e:8f:06:d8:e0:e1:
                    64:29:09:db:0d:0d:29:e5:ee:4f:81:a6:32:b4:1c:
                    41:24:af:01:f6:c5:91:cb:8e:ad:97:c6:66:a5:45:
                    1a:7c:68:78:54:48:a0:0b:9e:3d:ea:3f:fa:2c:78:
                    0a:f0:e0:2c:a9:24:6c:53:42:1f:27:51:cd:62:45:
                    fd:b5
                Exponent: 65537 (0x10001)
        X509v3 extensions:
            X509v3 Subject Key Identifier: 
                79:F5:E7:89:E5:D5:A0:62:09:4D:E6:AF:A2:E5:06:16:32:53:8D:0C
            X509v3 Authority Key Identifier: 
                keyid:2D:75:EE:60:B5:DC:BE:E2:55:B5:B9:B4:08:89:67:30:03:5E:20:D7

            X509v3 Basic Constraints: 
                CA:FALSE
            X509v3 Key Usage: critical
                Digital Signature, Non Repudiation, Key Encipherment
            X509v3 CRL Distribution Points: 

                Full Name:
                  URI:https://github.com/valberbenetz-okta/sample-certificates/raw/master/ca/ca.crl

                Full Name:
                  URI:https://github.com/valberbenetz-okta/sample-certificates/raw/master/ca-int/ca-int.crl

            X509v3 Subject Alternative Name: 
                othername:<unsupported>, email:user@example.com, URI:urn:uuid:029fbb34-e17d-11ea-87d0-0242ac130003
            Netscape Comment: 
                OpenSSL Generated Certificate
    Signature Algorithm: sha256WithRSAEncryption
         54:2f:3e:f4:9f:bc:ee:e4:c1:c9:67:15:86:4d:85:c7:bc:f3:
         7b:51:33:fc:a9:63:30:35:59:d6:d6:dd:b4:c1:8f:cc:da:6d:
         11:18:5c:de:14:72:05:7e:ba:45:31:f3:e6:3e:cd:4b:98:78:
         2f:1b:63:11:cc:49:ca:ce:f8:d9:49:dd:e1:65:7e:3d:19:0f:
         dc:5d:f1:4c:df:36:0d:68:30:7d:0e:b8:59:86:98:07:64:7a:
         17:f7:e5:d0:50:7c:ae:03:42:ed:13:17:cd:ce:02:2c:7b:e4:
         84:98:41:0f:97:74:30:e6:5b:d1:5b:87:a2:d9:7f:92:7d:c5:
         dc:da:d6:50:a0:84:b1:89:92:f0:07:94:ed:df:44:48:01:d9:
         24:90:4c:6a:d1:3e:c0:e6:2d:c8:50:ee:41:dc:e7:1e:ed:6a:
         e7:a2:54:6f:d7:ae:f2:29:e3:6b:89:1a:f4:28:a2:f7:c5:69:
         60:40:db:82:a7:ef:84:f9:aa:2c:f7:34:e7:46:09:71:cd:c4:
         91:92:0a:8e:a7:cb:31:e2:64:db:67:21:9c:95:5c:a3:96:0b:
         fe:fd:36:17:ad:25:08:3c:26:4b:af:f5:4a:71:64:48:c1:5a:
         56:da:9b:8c:ad:28:00:51:1d:d8:71:a9:ba:52:08:16:6b:cb:
         16:9e:8e:ca
-----BEGIN CERTIFICATE-----
MIIE7jCCA9agAwIBAgIBcjANBgkqhkiG9w0BAQsFADBkMQswCQYDVQQGEwJDQTEL
MAkGA1UECAwCT04xCzAJBgNVBAcMAlRPMRAwDgYDVQQKDAdQSVYgT3JnMRAwDgYD
VQQLDAdQSVYgT3JnMRcwFQYDVQQDDA5jYS1pbnQucGl2Lm9yZzAeFw0yMDA4MjEx
NTIzNDlaFw0yMzA1MTgxNTIzNDlaMFIxCzAJBgNVBAYTAkNBMQswCQYDVQQIDAJP
TjELMAkGA1UEBwwCVE8xEzARBgNVBAoMClNhbXBsZSBPcmcxFDASBgNVBAMMC2V4
YW1wbGUuY29tMIIBIjANBgkqhkiG9w0BAQEFAAOCAQ8AMIIBCgKCAQEAwX4y62CP
mX9wnHJp9sn3LYNg7SyUzo+yrzItTD71aXmz3cBV1TgJvAjqZgdyrezlOvVGd0/d
7EZETT69BGtgEOxaNunXbY6Y74rFjmRWSgEDfQmX3wSLSl8Myj2Jg4e7qeOK2HmP
dU10zlyIwf0jUG3QaYjhxkhu8jTR6VijgOhuJ+/RFfAhCgjxxv+k11+9S9t+wPf5
RQukGjEdZUgb2z3UL7LdcCa4oJVquIKHKzFyvnBTp2s1+cKEG8MejwbY4OFkKQnb
DQ0p5e5PgaYytBxBJK8B9sWRy46tl8ZmpUUafGh4VEigC5496j/6LHgK8OAsqSRs
U0IfJ1HNYkX9tQIDAQABo4IBuzCCAbcwHQYDVR0OBBYEFHn154nl1aBiCU3mr6Ll
BhYyU40MMB8GA1UdIwQYMBaAFC117mC13L7iVbW5tAiJZzADXiDXMAkGA1UdEwQC
MAAwDgYDVR0PAQH/BAQDAgXgMIG9BgNVHR8EgbUwgbIwU6BRoE+GTWh0dHBzOi8v
Z2l0aHViLmNvbS92YWxiZXJiZW5ldHotb2t0YS9zYW1wbGUtY2VydGlmaWNhdGVz
L3Jhdy9tYXN0ZXIvY2EvY2EuY3JsMFugWaBXhlVodHRwczovL2dpdGh1Yi5jb20v
dmFsYmVyYmVuZXR6LW9rdGEvc2FtcGxlLWNlcnRpZmljYXRlcy9yYXcvbWFzdGVy
L2NhLWludC9jYS1pbnQuY3JsMGwGA1UdEQRlMGOgIAYKKwYBBAGCNxQCA6ASDBB1
c2VyQGV4YW1wbGUuY29tgRB1c2VyQGV4YW1wbGUuY29thi11cm46dXVpZDowMjlm
YmIzNC1lMTdkLTExZWEtODdkMC0wMjQyYWMxMzAwMDMwLAYJYIZIAYb4QgENBB8W
HU9wZW5TU0wgR2VuZXJhdGVkIENlcnRpZmljYXRlMA0GCSqGSIb3DQEBCwUAA4IB
AQBULz70n7zu5MHJZxWGTYXHvPN7UTP8qWMwNVnW1t20wY/M2m0RGFzeFHIFfrpF
MfPmPs1LmHgvG2MRzEnKzvjZSd3hZX49GQ/cXfFM3zYNaDB9DrhZhpgHZHoX9+XQ
UHyuA0LtExfNzgIse+SEmEEPl3Qw5lvRW4ei2X+SfcXc2tZQoISxiZLwB5Tt30RI
AdkkkExq0T7A5i3IUO5B3Oce7WrnolRv167yKeNriRr0KKL3xWlgQNuCp++E+aos
9zTnRglxzcSRkgqOp8sx4mTbZyGclVyjlgv+/TYXrSUIPCZLr/VKcWRIwVpW2puM
rSgAUR3Ycam6UggWa8sWno7K
-----END CERTIFICATE-----
